	.text
	.syntax unified
	.eabi_attribute	67, "2.09"	@ Tag_conformance
	.cpu	cortex-a8
	.eabi_attribute	6, 10	@ Tag_CPU_arch
	.eabi_attribute	7, 65	@ Tag_CPU_arch_profile
	.eabi_attribute	8, 1	@ Tag_ARM_ISA_use
	.eabi_attribute	9, 2	@ Tag_THUMB_ISA_use
	.fpu	neon
	.eabi_attribute	17, 1	@ Tag_ABI_PCS_GOT_use
	.eabi_attribute	20, 2	@ Tag_ABI_FP_denormal
	.eabi_attribute	23, 1	@ Tag_ABI_FP_number_model
	.eabi_attribute	34, 1	@ Tag_CPU_unaligned_access
	.eabi_attribute	24, 1	@ Tag_ABI_align_needed
	.eabi_attribute	25, 1	@ Tag_ABI_align_preserved
	.eabi_attribute	28, 1	@ Tag_ABI_VFP_args
	.eabi_attribute	38, 1	@ Tag_ABI_FP_16bit_format
	.eabi_attribute	18, 4	@ Tag_ABI_PCS_wchar_t
	.eabi_attribute	26, 2	@ Tag_ABI_enum_size
	.eabi_attribute	14, 0	@ Tag_ABI_PCS_R9_use
	.eabi_attribute	68, 1	@ Tag_Virtualization_use
	.file	"/root/Bela/projects/crosssynthesis-0922/build/render.bc"
	.file	1 "/usr/include/ne10" "NE10_types.h"
	.file	2 "./libraries/Fft" "Fft.h"
	.file	3 "/usr/bin/../lib/gcc/arm-linux-gnueabihf/6.3.0/../../../../include/arm-linux-gnueabihf/c++/6.3.0/bits" "c++config.h"
	.file	4 "/usr/bin/../lib/gcc/arm-linux-gnueabihf/6.3.0/../../../../include/c++/6.3.0/bits" "alloc_traits.h"
	.file	5 "/usr/bin/../lib/gcc/arm-linux-gnueabihf/6.3.0/../../../../include/c++/6.3.0/ext" "new_allocator.h"
	.file	6 "/usr/bin/../lib/gcc/arm-linux-gnueabihf/6.3.0/../../../../include/arm-linux-gnueabihf/c++/6.3.0/bits" "c++allocator.h"
	.file	7 "/usr/bin/../lib/gcc/arm-linux-gnueabihf/6.3.0/../../../../include/c++/6.3.0/bits" "allocator.h"
	.file	8 "/usr/bin/../lib/gcc/arm-linux-gnueabihf/6.3.0/../../../../include/c++/6.3.0/ext" "alloc_traits.h"
	.file	9 "/usr/bin/../lib/gcc/arm-linux-gnueabihf/6.3.0/../../../../include/c++/6.3.0/bits" "stl_vector.h"
	.file	10 "/usr/bin/../lib/gcc/arm-linux-gnueabihf/6.3.0/../../../../include/c++/6.3.0" "type_traits"
	.file	11 "/root/Bela/projects/crosssynthesis-0922" "render.cpp"
	.file	12 "/usr/bin/../lib/gcc/arm-linux-gnueabihf/6.3.0/../../../../include/c++/6.3.0/bits" "stringfwd.h"
	.file	13 "/root/Bela/projects/crosssynthesis-0922" "MonoFilePlayer.h"
	.file	14 "./include" "Bela.h"
	.file	15 "./libraries/Scope" "Scope.h"
	.file	16 "/usr/bin/../lib/gcc/arm-linux-gnueabihf/6.3.0/../../../../include/c++/6.3.0/bits" "unique_ptr.h"
	.file	17 "/usr/bin/../lib/gcc/arm-linux-gnueabihf/6.3.0/../../../../include/c++/6.3.0" "tuple"
	.file	18 "/usr/bin/../lib/gcc/arm-linux-gnueabihf/6.3.0/../../../../include/c++/6.3.0/bits" "uses_allocator.h"
	.file	19 "/usr/bin/../lib/gcc/arm-linux-gnueabihf/6.3.0/../../../../include/c++/6.3.0/bits" "stl_tree.h"
	.file	20 "/usr/bin/../lib/gcc/arm-linux-gnueabihf/6.3.0/../../../../include/c++/6.3.0/bits" "stl_function.h"
	.file	21 "/usr/bin/../lib/gcc/arm-linux-gnueabihf/6.3.0/../../../../include/c++/6.3.0/bits" "stl_pair.h"
	.file	22 "/usr/bin/../lib/gcc/arm-linux-gnueabihf/6.3.0/../../../../include/c++/6.3.0/bits" "stl_map.h"
	.file	23 "./libraries/Gui" "Gui.h"
	.file	24 "/usr/bin/../lib/gcc/arm-linux-gnueabihf/6.3.0/../../../../include/c++/6.3.0" "functional"
	.file	25 "/usr/lib/llvm-3.9/bin/../lib/clang/3.9.1/include" "stddef.h"
	.file	26 "./libraries/GuiController" "GuiSlider.h"
	.file	27 "./include" "JSON.h"
	.file	28 "./libraries/GuiController" "GuiController.h"
	.file	29 "/usr/bin/../lib/gcc/arm-linux-gnueabihf/6.3.0/../../../../include/c++/6.3.0/ext" "concurrence.h"
	.file	30 "./libraries/Trill" "Trill.h"
	.file	31 "/usr/bin/../lib/gcc/arm-linux-gnueabihf/6.3.0/../../../../include/c++/6.3.0/bits" "basic_string.h"
	.file	32 "/usr/bin/../lib/gcc/arm-linux-gnueabihf/6.3.0/../../../../include/c++/6.3.0/bits" "cpp_type_traits.h"
	.file	33 "/usr/bin/../lib/gcc/arm-linux-gnueabihf/6.3.0/../../../../include/c++/6.3.0/bits" "char_traits.h"
	.file	34 "/usr/bin/../lib/gcc/arm-linux-gnueabihf/6.3.0/../../../../include/c++/6.3.0/bits" "stl_iterator.h"
	.file	35 "/usr/bin/../lib/gcc/arm-linux-gnueabihf/6.3.0/../../../../include/c++/6.3.0/bits" "stl_iterator_base_types.h"
	.file	36 "/usr/include" "stdlib.h"
	.file	37 "/usr/include/arm-linux-gnueabihf/bits" "stdlib-float.h"
	.file	38 "/usr/include/arm-linux-gnueabihf/bits" "stdlib-bsearch.h"
	.file	39 "/usr/bin/../lib/gcc/arm-linux-gnueabihf/6.3.0/../../../../include/c++/6.3.0" "cstdlib"
	.file	40 "/root/Bela/projects/crosssynthesis-0922/build" "render.cpp"
	.file	41 "/usr/bin/../lib/gcc/arm-linux-gnueabihf/6.3.0/../../../../include/c++/6.3.0/debug" "debug.h"
	.file	42 "/usr/bin/../lib/gcc/arm-linux-gnueabihf/6.3.0/../../../../include/c++/6.3.0/bits" "exception_ptr.h"
	.file	43 "/usr/include/arm-linux-gnueabihf/bits" "math-finite.h"
	.file	44 "/usr/include/arm-linux-gnueabihf/bits" "mathcalls.h"
	.file	45 "/usr/include/arm-linux-gnueabihf/bits" "mathdef.h"
	.file	46 "/usr/include" "wchar.h"
	.file	47 "/usr/include" "libio.h"
	.file	48 "/usr/include/arm-linux-gnueabihf/bits" "types.h"
	.file	49 "/usr/include" "stdio.h"
	.file	50 "/usr/lib/llvm-3.9/bin/../lib/clang/3.9.1/include" "stdarg.h"
	.file	51 "/usr/include" "stdint.h"
	.file	52 "/usr/include" "locale.h"
	.file	53 "/usr/include" "ctype.h"
	.file	54 "/usr/include" "_G_config.h"
	.file	55 "/usr/include/arm-linux-gnueabihf/bits" "stdio.h"
	.file	56 "/usr/include" "string.h"
	.section	.text._ZN3FftD2Ev,"axG",%progbits,_ZN3FftD2Ev,comdat
	.weak	_ZN3FftD2Ev
	.p2align	2
	.type	_ZN3FftD2Ev,%function
_ZN3FftD2Ev:                            @ @_ZN3FftD2Ev
.Lfunc_begin0:
	.loc	2 16 0                  @ ./libraries/Fft/Fft.h:16:0
	.fnstart
	.cfi_startproc
@ BB#0:
	.save	{r4, r10, r11, lr}
	push	{r4, r10, r11, lr}
.Ltmp3:
	.cfi_def_cfa_offset 16
.Ltmp4:
	.cfi_offset lr, -4
.Ltmp5:
	.cfi_offset r11, -8
.Ltmp6:
	.cfi_offset r10, -12
.Ltmp7:
	.cfi_offset r4, -16
	.setfp	r11, sp, #8
	add	r11, sp, #8
.Ltmp8:
	.cfi_def_cfa r11, 8
	@DEBUG_VALUE: ~Fft:this <- %R0
	mov	r4, r0
.Ltmp9:
	@DEBUG_VALUE: ~Fft:this <- %R4
	.loc	2 16 10 prologue_end    @ ./libraries/Fft/Fft.h:16:10
.Ltmp0:
	bl	_ZN3Fft7cleanupEv
.Ltmp1:
.Ltmp10:
@ BB#1:
	@DEBUG_VALUE: ~Fft:this <- %R4
	.loc	2 16 21 is_stmt 0 discriminator 1 @ ./libraries/Fft/Fft.h:16:21
	mov	r0, r4
	pop	{r4, r10, r11, pc}
.Ltmp11:
.LBB0_2:
	@DEBUG_VALUE: ~Fft:this <- %R4
.Ltmp2:
.Ltmp12:
	.loc	2 16 10 discriminator 2 @ ./libraries/Fft/Fft.h:16:10
	mov	lr, pc
	b	__clang_call_terminate
.Ltmp13:
.Lfunc_end0:
	.size	_ZN3FftD2Ev, .Lfunc_end0-_ZN3FftD2Ev
	.cfi_endproc
	.globl	__gxx_personality_v0
	.personality __gxx_personality_v0
	.handlerdata
	.p2align	2
GCC_except_table0:
.Lexception0:
	.byte	255                     @ @LPStart Encoding = omit
	.byte	0                       @ @TType Encoding = absptr
	.byte	21                      @ @TType base offset
	.byte	3                       @ Call site Encoding = udata4
	.byte	13                      @ Call site table length
	.long	.Ltmp0-.Lfunc_begin0    @ >> Call Site 1 <<
	.long	.Ltmp1-.Ltmp0           @   Call between .Ltmp0 and .Ltmp1
	.long	.Ltmp2-.Lfunc_begin0    @     jumps to .Ltmp2
	.byte	1                       @   On action: 1
	.byte	1                       @ >> Action Record 1 <<
                                        @   Catch TypeInfo 1
	.byte	0                       @   No further actions
                                        @ >> Catch TypeInfos <<
	.long	0                       @ TypeInfo 1
	.p2align	2
	.fnend

	.section	.text._ZNSt6vectorIfSaIfEED2Ev,"axG",%progbits,_ZNSt6vectorIfSaIfEED2Ev,comdat
	.weak	_ZNSt6vectorIfSaIfEED2Ev
	.p2align	2
	.type	_ZNSt6vectorIfSaIfEED2Ev,%function
_ZNSt6vectorIfSaIfEED2Ev:               @ @_ZNSt6vectorIfSaIfEED2Ev
.Lfunc_begin1:
	.loc	9 426 0 is_stmt 1       @ /usr/bin/../lib/gcc/arm-linux-gnueabihf/6.3.0/../../../../include/c++/6.3.0/bits/stl_vector.h:426:0
	.fnstart
	.cfi_startproc
@ BB#0:
	.save	{r4, r10, r11, lr}
	push	{r4, r10, r11, lr}
.Ltmp14:
	.cfi_def_cfa_offset 16
.Ltmp15:
	.cfi_offset lr, -4
.Ltmp16:
	.cfi_offset r11, -8
.Ltmp17:
	.cfi_offset r10, -12
.Ltmp18:
	.cfi_offset r4, -16
	.setfp	r11, sp, #8
	add	r11, sp, #8
.Ltmp19:
	.cfi_def_cfa r11, 8
	@DEBUG_VALUE: ~vector:this <- %R0
	mov	r4, r0
.Ltmp20:
	@DEBUG_VALUE: ~vector:this <- %R4
	.loc	9 160 37 prologue_end   @ /usr/bin/../lib/gcc/arm-linux-gnueabihf/6.3.0/../../../../include/c++/6.3.0/bits/stl_vector.h:160:37
	ldr	r0, [r4]
.Ltmp21:
	@DEBUG_VALUE: _M_deallocate:__p <- %R0
	@DEBUG_VALUE: deallocate:__p <- %R0
	@DEBUG_VALUE: deallocate:__p <- %R0
	.loc	9 177 6                 @ /usr/bin/../lib/gcc/arm-linux-gnueabihf/6.3.0/../../../../include/c++/6.3.0/bits/stl_vector.h:177:6
	cmp	r0, #0
	beq	.LBB1_2
.Ltmp22:
@ BB#1:
	@DEBUG_VALUE: deallocate:__p <- %R0
	@DEBUG_VALUE: deallocate:__p <- %R0
	@DEBUG_VALUE: _M_deallocate:__p <- %R0
	@DEBUG_VALUE: ~vector:this <- %R4
	.loc	5 110 9                 @ /usr/bin/../lib/gcc/arm-linux-gnueabihf/6.3.0/../../../../include/c++/6.3.0/ext/new_allocator.h:110:9
	bl	_ZdlPv
.Ltmp23:
.LBB1_2:                                @ %_ZNSt12_Vector_baseIfSaIfEED2Ev.exit
	@DEBUG_VALUE: ~vector:this <- %R4
	.loc	9 427 33 discriminator 1 @ /usr/bin/../lib/gcc/arm-linux-gnueabihf/6.3.0/../../../../include/c++/6.3.0/bits/stl_vector.h:427:33
	mov	r0, r4
	pop	{r4, r10, r11, pc}
.Ltmp24:
.Lfunc_end1:
	.size	_ZNSt6vectorIfSaIfEED2Ev, .Lfunc_end1-_ZNSt6vectorIfSaIfEED2Ev
	.cfi_endproc
	.fnend

	.section	.text._ZN14MonoFilePlayerD2Ev,"axG",%progbits,_ZN14MonoFilePlayerD2Ev,comdat
	.weak	_ZN14MonoFilePlayerD2Ev
	.p2align	2
	.type	_ZN14MonoFilePlayerD2Ev,%function
_ZN14MonoFilePlayerD2Ev:                @ @_ZN14MonoFilePlayerD2Ev
.Lfunc_begin2:
	.loc	13 42 0                 @ /root/Bela/projects/crosssynthesis-0922/MonoFilePlayer.h:42:0
	.fnstart
	.cfi_startproc
@ BB#0:
	.save	{r4, r10, r11, lr}
	push	{r4, r10, r11, lr}
.Ltmp25:
	.cfi_def_cfa_offset 16
.Ltmp26:
	.cfi_offset lr, -4
.Ltmp27:
	.cfi_offset r11, -8
.Ltmp28:
	.cfi_offset r10, -12
.Ltmp29:
	.cfi_offset r4, -16
	.setfp	r11, sp, #8
	add	r11, sp, #8
.Ltmp30:
	.cfi_def_cfa r11, 8
	@DEBUG_VALUE: ~MonoFilePlayer:this <- %R0
	mov	r4, r0
.Ltmp31:
	@DEBUG_VALUE: ~MonoFilePlayer:this <- %R4
	.loc	9 160 37 prologue_end   @ /usr/bin/../lib/gcc/arm-linux-gnueabihf/6.3.0/../../../../include/c++/6.3.0/bits/stl_vector.h:160:37
	ldr	r0, [r4]
.Ltmp32:
	@DEBUG_VALUE: _M_deallocate:__p <- %R0
	@DEBUG_VALUE: deallocate:__p <- %R0
	@DEBUG_VALUE: deallocate:__p <- %R0
	.loc	9 177 6                 @ /usr/bin/../lib/gcc/arm-linux-gnueabihf/6.3.0/../../../../include/c++/6.3.0/bits/stl_vector.h:177:6
	cmp	r0, #0
	beq	.LBB2_2
.Ltmp33:
@ BB#1:
	@DEBUG_VALUE: deallocate:__p <- %R0
	@DEBUG_VALUE: deallocate:__p <- %R0
	@DEBUG_VALUE: _M_deallocate:__p <- %R0
	@DEBUG_VALUE: ~MonoFilePlayer:this <- %R4
	.loc	5 110 9                 @ /usr/bin/../lib/gcc/arm-linux-gnueabihf/6.3.0/../../../../include/c++/6.3.0/ext/new_allocator.h:110:9
	bl	_ZdlPv
.Ltmp34:
.LBB2_2:                                @ %_ZNSt6vectorIfSaIfEED2Ev.exit
	@DEBUG_VALUE: ~MonoFilePlayer:this <- %R4
	.loc	13 42 21                @ /root/Bela/projects/crosssynthesis-0922/MonoFilePlayer.h:42:21
	mov	r0, r4
	pop	{r4, r10, r11, pc}
.Ltmp35:
.Lfunc_end2:
	.size	_ZN14MonoFilePlayerD2Ev, .Lfunc_end2-_ZN14MonoFilePlayerD2Ev
	.cfi_endproc
	.fnend

	.text
	.globl	_Z4loopPv
	.p2align	2
	.type	_Z4loopPv,%function
_Z4loopPv:                              @ @_Z4loopPv
.Lfunc_begin3:
	.loc	11 87 0                 @ /root/Bela/projects/crosssynthesis-0922/render.cpp:87:0
	.fnstart
	.cfi_startproc
@ BB#0:
	.save	{r4, r5, r11, lr}
	push	{r4, r5, r11, lr}
.Ltmp36:
	.cfi_def_cfa_offset 16
.Ltmp37:
	.cfi_offset lr, -4
.Ltmp38:
	.cfi_offset r11, -8
.Ltmp39:
	.cfi_offset r5, -12
.Ltmp40:
	.cfi_offset r4, -16
	.setfp	r11, sp, #8
	add	r11, sp, #8
.Ltmp41:
	.cfi_def_cfa r11, 8
	@DEBUG_VALUE: loop: <- %R0
.Ltmp42:
	.loc	11 89 9 prologue_end discriminator 1 @ /root/Bela/projects/crosssynthesis-0922/render.cpp:89:9
	bl	Bela_stopRequested
.Ltmp43:
	.loc	11 89 2 is_stmt 0 discriminator 1 @ /root/Bela/projects/crosssynthesis-0922/render.cpp:89:2
	cmp	r0, #0
	.loc	11 99 1 is_stmt 1       @ /root/Bela/projects/crosssynthesis-0922/render.cpp:99:1
	popne	{r4, r5, r11, pc}
.Ltmp44:
	.loc	11 92 15                @ /root/Bela/projects/crosssynthesis-0922/render.cpp:92:15
	movw	r4, :lower16:.L_MergedGlobals.4
	.loc	11 93 14                @ /root/Bela/projects/crosssynthesis-0922/render.cpp:93:14
	movw	r5, :lower16:.L_MergedGlobals
	.loc	11 92 15                @ /root/Bela/projects/crosssynthesis-0922/render.cpp:92:15
	movt	r4, :upper16:.L_MergedGlobals.4
	.loc	11 93 14                @ /root/Bela/projects/crosssynthesis-0922/render.cpp:93:14
	movt	r5, :upper16:.L_MergedGlobals
.LBB3_1:                                @ %.lr.ph
                                        @ =>This Inner Loop Header: Depth=1
	.loc	11 92 15                @ /root/Bela/projects/crosssynthesis-0922/render.cpp:92:15
	mov	r0, r4
	bl	_ZN5Trill7readI2CEv
	.loc	11 93 28                @ /root/Bela/projects/crosssynthesis-0922/render.cpp:93:28
	mov	r0, r4
	bl	_ZN5Trill17compoundTouchSizeEv
	.loc	11 94 35                @ /root/Bela/projects/crosssynthesis-0922/render.cpp:94:35
	mov	r0, r4
	.loc	11 93 14                @ /root/Bela/projects/crosssynthesis-0922/render.cpp:93:14
	vstr	s0, [r5, #28]
	.loc	11 94 35                @ /root/Bela/projects/crosssynthesis-0922/render.cpp:94:35
	bl	_ZN5Trill31compoundTouchHorizontalLocationEv
	.loc	11 97 3                 @ /root/Bela/projects/crosssynthesis-0922/render.cpp:97:3
	movw	r0, #12000
	.loc	11 94 21                @ /root/Bela/projects/crosssynthesis-0922/render.cpp:94:21
	vstr	s0, [r5, #40]
	.loc	11 97 3                 @ /root/Bela/projects/crosssynthesis-0922/render.cpp:97:3
	bl	usleep
.Ltmp45:
	.loc	11 89 9 discriminator 1 @ /root/Bela/projects/crosssynthesis-0922/render.cpp:89:9
	bl	Bela_stopRequested
	.loc	11 89 2 is_stmt 0 discriminator 1 @ /root/Bela/projects/crosssynthesis-0922/render.cpp:89:2
	cmp	r0, #0
	beq	.LBB3_1
@ BB#2:                                 @ %._crit_edge
	.loc	11 99 1 is_stmt 1       @ /root/Bela/projects/crosssynthesis-0922/render.cpp:99:1
	pop	{r4, r5, r11, pc}
.Ltmp46:
.Lfunc_end3:
	.size	_Z4loopPv, .Lfunc_end3-_Z4loopPv
	.cfi_endproc
	.fnend

	.globl	setup
	.p2align	4
	.type	setup,%function
setup:                                  @ @setup
.Lfunc_begin4:
	.loc	11 103 0                @ /root/Bela/projects/crosssynthesis-0922/render.cpp:103:0
	.fnstart
	.cfi_startproc
@ BB#0:
	.save	{r4, r5, r6, r7, r8, r9, r11, lr}
	push	{r4, r5, r6, r7, r8, r9, r11, lr}
.Ltmp47:
	.cfi_def_cfa_offset 32
.Ltmp48:
	.cfi_offset lr, -4
.Ltmp49:
	.cfi_offset r11, -8
.Ltmp50:
	.cfi_offset r9, -12
.Ltmp51:
	.cfi_offset r8, -16
.Ltmp52:
	.cfi_offset r7, -20
.Ltmp53:
	.cfi_offset r6, -24
.Ltmp54:
	.cfi_offset r5, -28
.Ltmp55:
	.cfi_offset r4, -32
	.setfp	r11, sp, #24
	add	r11, sp, #24
.Ltmp56:
	.cfi_def_cfa r11, 8
	.vsave	{d8, d9, d10, d11, d12, d13, d14, d15}
	vpush	{d8, d9, d10, d11, d12, d13, d14, d15}
.Ltmp57:
	.cfi_offset d15, -40
.Ltmp58:
	.cfi_offset d14, -48
.Ltmp59:
	.cfi_offset d13, -56
.Ltmp60:
	.cfi_offset d12, -64
.Ltmp61:
	.cfi_offset d11, -72
.Ltmp62:
	.cfi_offset d10, -80
.Ltmp63:
	.cfi_offset d9, -88
.Ltmp64:
	.cfi_offset d8, -96
	.pad	#8
	sub	sp, sp, #8
	@DEBUG_VALUE: setup:context <- %R0
	@DEBUG_VALUE: setup:userData <- %R1
	mov	r4, r0
.Ltmp65:
	@DEBUG_VALUE: setup:context <- %R4
	.loc	11 106 17 prologue_end  @ /root/Bela/projects/crosssynthesis-0922/render.cpp:106:17
	movw	r0, :lower16:.L_MergedGlobals.4
	movt	r0, :upper16:.L_MergedGlobals.4
	mov	r1, #1
.Ltmp66:
	mov	r2, #2
	mov	r3, #255
	bl	_ZN5Trill5setupEjNS_6DeviceEh
.Ltmp67:
	.loc	11 106 5 is_stmt 0      @ /root/Bela/projects/crosssynthesis-0922/render.cpp:106:5
	cmp	r0, #0
	bne	.LBB4_26
.Ltmp68:
@ BB#1:
	@DEBUG_VALUE: setup:context <- %R4
	.loc	11 110 2 is_stmt 1      @ /root/Bela/projects/crosssynthesis-0922/render.cpp:110:2
	movw	r0, :lower16:_Z4loopPv
	mov	r1, #0
	movt	r0, :upper16:_Z4loopPv
	mov	r2, #0
	mov	r5, #0
	bl	Bela_runAuxiliaryTask
.Ltmp69:
	.loc	11 113 17               @ /root/Bela/projects/crosssynthesis-0922/render.cpp:113:17
	movw	r7, :lower16:.L_MergedGlobals.2
	movw	r6, :lower16:gPlayerMag
	movt	r7, :upper16:.L_MergedGlobals.2
	movt	r6, :upper16:gPlayerMag
	add	r1, r7, #84
	mov	r0, r6
	mov	r2, #1
	mov	r3, #1
	bl	_ZN14MonoFilePlayer5setupERKNSt7__cxx1112basic_stringIcSt11char_traitsIcESaIcEEEbb
.Ltmp70:
	.loc	11 113 5 is_stmt 0      @ /root/Bela/projects/crosssynthesis-0922/render.cpp:113:5
	cmp	r0, #0
	beq	.LBB4_5
.Ltmp71:
@ BB#2:
	@DEBUG_VALUE: setup:context <- %R4
	.loc	11 117 17 is_stmt 1     @ /root/Bela/projects/crosssynthesis-0922/render.cpp:117:17
	movw	r9, :lower16:gPlayerPhi
	movw	r8, :lower16:.L_MergedGlobals.3
	movt	r9, :upper16:gPlayerPhi
	movt	r8, :upper16:.L_MergedGlobals.3
	mov	r0, r9
	mov	r1, r8
	mov	r2, #1
	mov	r3, #1
	bl	_ZN14MonoFilePlayer5setupERKNSt7__cxx1112basic_stringIcSt11char_traitsIcESaIcEEEbb
.Ltmp72:
	.loc	11 117 5 is_stmt 0      @ /root/Bela/projects/crosssynthesis-0922/render.cpp:117:5
	cmp	r0, #0
	beq	.LBB4_6
.Ltmp73:
@ BB#3:
	@DEBUG_VALUE: setup:context <- %R4
	.loc	9 656 66 is_stmt 1      @ /usr/bin/../lib/gcc/arm-linux-gnueabihf/6.3.0/../../../../include/c++/6.3.0/bits/stl_vector.h:656:66
	ldm	r6, {r0, r1}
.Ltmp74:
	.loc	11 123 2                @ /root/Bela/projects/crosssynthesis-0922/render.cpp:123:2
	movw	r5, :lower16:.L.str.24
	movt	r5, :upper16:.L.str.24
.Ltmp75:
	.loc	9 656 50                @ /usr/bin/../lib/gcc/arm-linux-gnueabihf/6.3.0/../../../../include/c++/6.3.0/bits/stl_vector.h:656:50
	sub	r0, r1, r0
.Ltmp76:
	.loc	11 125 37               @ /root/Bela/projects/crosssynthesis-0922/render.cpp:125:37
	vldr	s0, [r4, #32]
.Ltmp77:
	.loc	31 136 28               @ /usr/bin/../lib/gcc/arm-linux-gnueabihf/6.3.0/../../../../include/c++/6.3.0/bits/basic_string.h:136:28
	ldr	r1, [r7, #84]
.Ltmp78:
	.loc	9 656 50                @ /usr/bin/../lib/gcc/arm-linux-gnueabihf/6.3.0/../../../../include/c++/6.3.0/bits/stl_vector.h:656:50
	asr	r2, r0, #2
.Ltmp79:
	.loc	11 123 2                @ /root/Bela/projects/crosssynthesis-0922/render.cpp:123:2
	mov	r0, r5
	.loc	11 125 8                @ /root/Bela/projects/crosssynthesis-0922/render.cpp:125:8
	vmov	s2, r2
	vcvt.f32.u32	d1, d1
	.loc	11 125 26 is_stmt 0     @ /root/Bela/projects/crosssynthesis-0922/render.cpp:125:26
	vdiv.f32	s0, s2, s0
	.loc	11 125 8                @ /root/Bela/projects/crosssynthesis-0922/render.cpp:125:8
	vcvt.f64.f32	d16, s0
	.loc	11 123 2 is_stmt 1      @ /root/Bela/projects/crosssynthesis-0922/render.cpp:123:2
	vstr	d16, [sp]
	bl	rt_printf
.Ltmp80:
	.loc	9 656 66                @ /usr/bin/../lib/gcc/arm-linux-gnueabihf/6.3.0/../../../../include/c++/6.3.0/bits/stl_vector.h:656:66
	ldm	r9, {r0, r1}
	.loc	9 656 50 is_stmt 0      @ /usr/bin/../lib/gcc/arm-linux-gnueabihf/6.3.0/../../../../include/c++/6.3.0/bits/stl_vector.h:656:50
	sub	r0, r1, r0
.Ltmp81:
	.loc	11 128 37 is_stmt 1     @ /root/Bela/projects/crosssynthesis-0922/render.cpp:128:37
	vldr	s0, [r4, #32]
.Ltmp82:
	.loc	31 136 28               @ /usr/bin/../lib/gcc/arm-linux-gnueabihf/6.3.0/../../../../include/c++/6.3.0/bits/basic_string.h:136:28
	ldr	r1, [r8]
.Ltmp83:
	.loc	9 656 50                @ /usr/bin/../lib/gcc/arm-linux-gnueabihf/6.3.0/../../../../include/c++/6.3.0/bits/stl_vector.h:656:50
	asr	r2, r0, #2
.Ltmp84:
	.loc	11 126 5                @ /root/Bela/projects/crosssynthesis-0922/render.cpp:126:5
	mov	r0, r5
	.loc	11 128 8                @ /root/Bela/projects/crosssynthesis-0922/render.cpp:128:8
	vmov	s2, r2
	vcvt.f32.u32	d1, d1
	.loc	11 128 26 is_stmt 0     @ /root/Bela/projects/crosssynthesis-0922/render.cpp:128:26
	vdiv.f32	s0, s2, s0
	.loc	11 128 8                @ /root/Bela/projects/crosssynthesis-0922/render.cpp:128:8
	vcvt.f64.f32	d16, s0
	.loc	11 126 5 is_stmt 1      @ /root/Bela/projects/crosssynthesis-0922/render.cpp:126:5
	vstr	d16, [sp]
	bl	rt_printf
	.loc	11 131 10               @ /root/Bela/projects/crosssynthesis-0922/render.cpp:131:10
	add	r0, r7, #36
	mov	r1, #2048
	bl	_ZN3Fft5setupEj
	.loc	11 132 10               @ /root/Bela/projects/crosssynthesis-0922/render.cpp:132:10
	add	r0, r7, #52
	mov	r1, #2048
	bl	_ZN3Fft5setupEj
	.loc	11 133 11               @ /root/Bela/projects/crosssynthesis-0922/render.cpp:133:11
	add	r0, r7, #68
	mov	r1, #2048
	bl	_ZN3Fft5setupEj
.Ltmp85:
	@DEBUG_VALUE: resize:__new_size <- 16384
	.loc	9 656 40                @ /usr/bin/../lib/gcc/arm-linux-gnueabihf/6.3.0/../../../../include/c++/6.3.0/bits/stl_vector.h:656:40
	movw	r4, :lower16:.L_MergedGlobals
.Ltmp86:
	mov	r2, #0
	movt	r4, :upper16:.L_MergedGlobals
	.loc	9 656 66 is_stmt 0      @ /usr/bin/../lib/gcc/arm-linux-gnueabihf/6.3.0/../../../../include/c++/6.3.0/bits/stl_vector.h:656:66
	ldrd	r0, r1, [r4, #48]
	.loc	9 656 50                @ /usr/bin/../lib/gcc/arm-linux-gnueabihf/6.3.0/../../../../include/c++/6.3.0/bits/stl_vector.h:656:50
	sub	r1, r1, r0
	asr	r1, r1, #2
.Ltmp87:
	.loc	9 676 6 is_stmt 1       @ /usr/bin/../lib/gcc/arm-linux-gnueabihf/6.3.0/../../../../include/c++/6.3.0/bits/stl_vector.h:676:6
	cmp	r2, r1, lsr #14
.Ltmp88:
	@DEBUG_VALUE: size:this <- %R6
	@DEBUG_VALUE: size:this <- %R6
	@DEBUG_VALUE: size:this <- %R9
	@DEBUG_VALUE: size:this <- %R9
	bne	.LBB4_8
.Ltmp89:
@ BB#4:
	@DEBUG_VALUE: size:this <- %R9
	@DEBUG_VALUE: size:this <- %R9
	@DEBUG_VALUE: size:this <- %R6
	@DEBUG_VALUE: size:this <- %R6
	.loc	9 677 4 discriminator 1 @ /usr/bin/../lib/gcc/arm-linux-gnueabihf/6.3.0/../../../../include/c++/6.3.0/bits/stl_vector.h:677:4
	add	r0, r4, #48
.Ltmp90:
	@DEBUG_VALUE: _M_erase_at_end:this <- %R0
	.loc	9 677 33 is_stmt 0      @ /usr/bin/../lib/gcc/arm-linux-gnueabihf/6.3.0/../../../../include/c++/6.3.0/bits/stl_vector.h:677:33
	rsb	r1, r1, #16384
	.loc	9 677 4 discriminator 1 @ /usr/bin/../lib/gcc/arm-linux-gnueabihf/6.3.0/../../../../include/c++/6.3.0/bits/stl_vector.h:677:4
	bl	_ZNSt6vectorIfSaIfEE17_M_default_appendEj
.Ltmp91:
	b	.LBB4_9
.Ltmp92:
.LBB4_5:
	@DEBUG_VALUE: setup:context <- %R4
	.loc	31 136 28 is_stmt 1     @ /usr/bin/../lib/gcc/arm-linux-gnueabihf/6.3.0/../../../../include/c++/6.3.0/bits/basic_string.h:136:28
	ldr	r1, [r7, #84]
	b	.LBB4_7
.Ltmp93:
.LBB4_6:
	@DEBUG_VALUE: setup:context <- %R4
	.loc	31 136 28 is_stmt 0     @ /usr/bin/../lib/gcc/arm-linux-gnueabihf/6.3.0/../../../../include/c++/6.3.0/bits/basic_string.h:136:28
	ldr	r1, [r8]
.Ltmp94:
.LBB4_7:
	@DEBUG_VALUE: setup:context <- %R4
	.loc	11 114 6 is_stmt 1 discriminator 1 @ /root/Bela/projects/crosssynthesis-0922/render.cpp:114:6
	movw	r0, :lower16:.L.str.23
	movt	r0, :upper16:.L.str.23
	bl	rt_printf
	b	.LBB4_27
.Ltmp95:
.LBB4_8:
	@DEBUG_VALUE: size:this <- %R9
	@DEBUG_VALUE: size:this <- %R9
	@DEBUG_VALUE: size:this <- %R6
	@DEBUG_VALUE: size:this <- %R6
	.loc	9 678 11                @ /usr/bin/../lib/gcc/arm-linux-gnueabihf/6.3.0/../../../../include/c++/6.3.0/bits/stl_vector.h:678:11
	cmp	r1, #16384
.Ltmp96:
	.loc	9 679 43                @ /usr/bin/../lib/gcc/arm-linux-gnueabihf/6.3.0/../../../../include/c++/6.3.0/bits/stl_vector.h:679:43
	addne	r0, r0, #65536
.Ltmp97:
	@DEBUG_VALUE: _M_erase_at_end:__pos <- %R0
	.loc	9 1437 26               @ /usr/bin/../lib/gcc/arm-linux-gnueabihf/6.3.0/../../../../include/c++/6.3.0/bits/stl_vector.h:1437:26
	strne	r0, [r4, #52]
.Ltmp98:
.LBB4_9:                                @ %_ZNSt6vectorIfSaIfEE6resizeEj.exit18
	@DEBUG_VALUE: size:this <- %R9
	@DEBUG_VALUE: size:this <- %R9
	@DEBUG_VALUE: size:this <- %R6
	@DEBUG_VALUE: size:this <- %R6
	@DEBUG_VALUE: resize:__new_size <- 16384
	.loc	9 656 66                @ /usr/bin/../lib/gcc/arm-linux-gnueabihf/6.3.0/../../../../include/c++/6.3.0/bits/stl_vector.h:656:66
	ldr	r0, [r4, #60]
	mov	r2, #0
	.loc	9 656 40 is_stmt 0      @ /usr/bin/../lib/gcc/arm-linux-gnueabihf/6.3.0/../../../../include/c++/6.3.0/bits/stl_vector.h:656:40
	ldr	r1, [r4, #64]
	.loc	9 656 50                @ /usr/bin/../lib/gcc/arm-linux-gnueabihf/6.3.0/../../../../include/c++/6.3.0/bits/stl_vector.h:656:50
	sub	r1, r1, r0
	asr	r1, r1, #2
.Ltmp99:
	.loc	9 676 6 is_stmt 1       @ /usr/bin/../lib/gcc/arm-linux-gnueabihf/6.3.0/../../../../include/c++/6.3.0/bits/stl_vector.h:676:6
	cmp	r2, r1, lsr #14
	bne	.LBB4_11
.Ltmp100:
@ BB#10:
	@DEBUG_VALUE: size:this <- %R9
	@DEBUG_VALUE: size:this <- %R9
	@DEBUG_VALUE: size:this <- %R6
	@DEBUG_VALUE: size:this <- %R6
	.loc	9 677 4 discriminator 1 @ /usr/bin/../lib/gcc/arm-linux-gnueabihf/6.3.0/../../../../include/c++/6.3.0/bits/stl_vector.h:677:4
	add	r0, r4, #60
.Ltmp101:
	@DEBUG_VALUE: _M_erase_at_end:this <- %R0
	.loc	9 677 33 is_stmt 0      @ /usr/bin/../lib/gcc/arm-linux-gnueabihf/6.3.0/../../../../include/c++/6.3.0/bits/stl_vector.h:677:33
	rsb	r1, r1, #16384
	.loc	9 677 4 discriminator 1 @ /usr/bin/../lib/gcc/arm-linux-gnueabihf/6.3.0/../../../../include/c++/6.3.0/bits/stl_vector.h:677:4
	bl	_ZNSt6vectorIfSaIfEE17_M_default_appendEj
.Ltmp102:
	b	.LBB4_12
.Ltmp103:
.LBB4_11:
	@DEBUG_VALUE: size:this <- %R9
	@DEBUG_VALUE: size:this <- %R9
	@DEBUG_VALUE: size:this <- %R6
	@DEBUG_VALUE: size:this <- %R6
	.loc	9 678 11 is_stmt 1      @ /usr/bin/../lib/gcc/arm-linux-gnueabihf/6.3.0/../../../../include/c++/6.3.0/bits/stl_vector.h:678:11
	cmp	r1, #16384
.Ltmp104:
	.loc	9 679 43                @ /usr/bin/../lib/gcc/arm-linux-gnueabihf/6.3.0/../../../../include/c++/6.3.0/bits/stl_vector.h:679:43
	addne	r0, r0, #65536
.Ltmp105:
	@DEBUG_VALUE: _M_erase_at_end:__pos <- %R0
	.loc	9 1437 26               @ /usr/bin/../lib/gcc/arm-linux-gnueabihf/6.3.0/../../../../include/c++/6.3.0/bits/stl_vector.h:1437:26
	strne	r0, [r4, #64]
.Ltmp106:
.LBB4_12:                               @ %_ZNSt6vectorIfSaIfEE6resizeEj.exit17
	@DEBUG_VALUE: size:this <- %R9
	@DEBUG_VALUE: size:this <- %R9
	@DEBUG_VALUE: size:this <- %R6
	@DEBUG_VALUE: size:this <- %R6
	@DEBUG_VALUE: resize:__new_size <- 16384
	.loc	9 656 66                @ /usr/bin/../lib/gcc/arm-linux-gnueabihf/6.3.0/../../../../include/c++/6.3.0/bits/stl_vector.h:656:66
	ldrd	r0, r1, [r4, #72]
	mov	r2, #0
	.loc	9 656 50 is_stmt 0      @ /usr/bin/../lib/gcc/arm-linux-gnueabihf/6.3.0/../../../../include/c++/6.3.0/bits/stl_vector.h:656:50
	sub	r1, r1, r0
	asr	r1, r1, #2
.Ltmp107:
	.loc	9 676 6 is_stmt 1       @ /usr/bin/../lib/gcc/arm-linux-gnueabihf/6.3.0/../../../../include/c++/6.3.0/bits/stl_vector.h:676:6
	cmp	r2, r1, lsr #14
	bne	.LBB4_14
.Ltmp108:
@ BB#13:
	@DEBUG_VALUE: size:this <- %R9
	@DEBUG_VALUE: size:this <- %R9
	@DEBUG_VALUE: size:this <- %R6
	@DEBUG_VALUE: size:this <- %R6
	.loc	9 677 4 discriminator 1 @ /usr/bin/../lib/gcc/arm-linux-gnueabihf/6.3.0/../../../../include/c++/6.3.0/bits/stl_vector.h:677:4
	add	r0, r4, #72
.Ltmp109:
	@DEBUG_VALUE: _M_erase_at_end:this <- %R0
	.loc	9 677 33 is_stmt 0      @ /usr/bin/../lib/gcc/arm-linux-gnueabihf/6.3.0/../../../../include/c++/6.3.0/bits/stl_vector.h:677:33
	rsb	r1, r1, #16384
	.loc	9 677 4 discriminator 1 @ /usr/bin/../lib/gcc/arm-linux-gnueabihf/6.3.0/../../../../include/c++/6.3.0/bits/stl_vector.h:677:4
	bl	_ZNSt6vectorIfSaIfEE17_M_default_appendEj
.Ltmp110:
	b	.LBB4_15
.Ltmp111:
.LBB4_14:
	@DEBUG_VALUE: size:this <- %R9
	@DEBUG_VALUE: size:this <- %R9
	@DEBUG_VALUE: size:this <- %R6
	@DEBUG_VALUE: size:this <- %R6
	.loc	9 678 11 is_stmt 1      @ /usr/bin/../lib/gcc/arm-linux-gnueabihf/6.3.0/../../../../include/c++/6.3.0/bits/stl_vector.h:678:11
	cmp	r1, #16384
.Ltmp112:
	.loc	9 679 43                @ /usr/bin/../lib/gcc/arm-linux-gnueabihf/6.3.0/../../../../include/c++/6.3.0/bits/stl_vector.h:679:43
	addne	r0, r0, #65536
.Ltmp113:
	@DEBUG_VALUE: _M_erase_at_end:__pos <- %R0
	.loc	9 1437 26               @ /usr/bin/../lib/gcc/arm-linux-gnueabihf/6.3.0/../../../../include/c++/6.3.0/bits/stl_vector.h:1437:26
	strne	r0, [r4, #76]
.Ltmp114:
.LBB4_15:                               @ %_ZNSt6vectorIfSaIfEE6resizeEj.exit16
	@DEBUG_VALUE: size:this <- %R9
	@DEBUG_VALUE: size:this <- %R9
	@DEBUG_VALUE: size:this <- %R6
	@DEBUG_VALUE: size:this <- %R6
	@DEBUG_VALUE: resize:__new_size <- 2048
	.loc	9 656 66                @ /usr/bin/../lib/gcc/arm-linux-gnueabihf/6.3.0/../../../../include/c++/6.3.0/bits/stl_vector.h:656:66
	ldr	r5, [r4, #84]
	.loc	9 656 40 is_stmt 0      @ /usr/bin/../lib/gcc/arm-linux-gnueabihf/6.3.0/../../../../include/c++/6.3.0/bits/stl_vector.h:656:40
	ldr	r0, [r4, #88]
	.loc	9 656 50                @ /usr/bin/../lib/gcc/arm-linux-gnueabihf/6.3.0/../../../../include/c++/6.3.0/bits/stl_vector.h:656:50
	sub	r0, r0, r5
	asr	r1, r0, #2
	mov	r0, #0
.Ltmp115:
	.loc	9 676 6 is_stmt 1       @ /usr/bin/../lib/gcc/arm-linux-gnueabihf/6.3.0/../../../../include/c++/6.3.0/bits/stl_vector.h:676:6
	cmp	r0, r1, lsr #11
	bne	.LBB4_17
.Ltmp116:
@ BB#16:
	@DEBUG_VALUE: size:this <- %R9
	@DEBUG_VALUE: size:this <- %R9
	@DEBUG_VALUE: size:this <- %R6
	@DEBUG_VALUE: size:this <- %R6
	.loc	9 677 4 discriminator 1 @ /usr/bin/../lib/gcc/arm-linux-gnueabihf/6.3.0/../../../../include/c++/6.3.0/bits/stl_vector.h:677:4
	add	r0, r4, #84
.Ltmp117:
	@DEBUG_VALUE: _M_erase_at_end:this <- %R0
	.loc	9 677 33 is_stmt 0      @ /usr/bin/../lib/gcc/arm-linux-gnueabihf/6.3.0/../../../../include/c++/6.3.0/bits/stl_vector.h:677:33
	rsb	r1, r1, #2048
	.loc	9 677 4 discriminator 1 @ /usr/bin/../lib/gcc/arm-linux-gnueabihf/6.3.0/../../../../include/c++/6.3.0/bits/stl_vector.h:677:4
	bl	_ZNSt6vectorIfSaIfEE17_M_default_appendEj
.Ltmp118:
	.loc	9 781 32 is_stmt 1      @ /usr/bin/../lib/gcc/arm-linux-gnueabihf/6.3.0/../../../../include/c++/6.3.0/bits/stl_vector.h:781:32
	ldr	r5, [r4, #84]
	b	.LBB4_18
.Ltmp119:
.LBB4_17:
	@DEBUG_VALUE: size:this <- %R9
	@DEBUG_VALUE: size:this <- %R9
	@DEBUG_VALUE: size:this <- %R6
	@DEBUG_VALUE: size:this <- %R6
	.loc	9 678 11                @ /usr/bin/../lib/gcc/arm-linux-gnueabihf/6.3.0/../../../../include/c++/6.3.0/bits/stl_vector.h:678:11
	cmp	r1, #2048
.Ltmp120:
	.loc	9 679 43                @ /usr/bin/../lib/gcc/arm-linux-gnueabihf/6.3.0/../../../../include/c++/6.3.0/bits/stl_vector.h:679:43
	addne	r0, r5, #8192
.Ltmp121:
	@DEBUG_VALUE: _M_erase_at_end:__pos <- %R0
	.loc	9 1437 26               @ /usr/bin/../lib/gcc/arm-linux-gnueabihf/6.3.0/../../../../include/c++/6.3.0/bits/stl_vector.h:1437:26
	strne	r0, [r4, #88]
.Ltmp122:
.LBB4_18:                               @ %vector.ph
	@DEBUG_VALUE: size:this <- %R9
	@DEBUG_VALUE: size:this <- %R9
	@DEBUG_VALUE: size:this <- %R6
	@DEBUG_VALUE: size:this <- %R6
	adr	r0, .LCPI4_0
.Ltmp123:
	.loc	11 142 83               @ /root/Bela/projects/crosssynthesis-0922/render.cpp:142:83
	vldr	d10, .LCPI4_1
	vld1.64	{d12, d13}, [r0:128]
	mov	r6, #2048
.Ltmp124:
.LBB4_19:                               @ %vector.body
                                        @ =>This Inner Loop Header: Depth=1
	.loc	11 142 81 is_stmt 0     @ /root/Bela/projects/crosssynthesis-0922/render.cpp:142:81
	vcvt.f64.s32	d16, s27
	.loc	11 142 83               @ /root/Bela/projects/crosssynthesis-0922/render.cpp:142:83
	vmul.f64	d16, d16, d10
	.loc	11 142 81               @ /root/Bela/projects/crosssynthesis-0922/render.cpp:142:81
	vcvt.f64.s32	d17, s26
	vcvt.f64.s32	d18, s25
	vcvt.f64.s32	d19, s24
	.loc	11 142 50               @ /root/Bela/projects/crosssynthesis-0922/render.cpp:142:50
	vcvt.f32.f64	s0, d16
	.loc	11 142 83               @ /root/Bela/projects/crosssynthesis-0922/render.cpp:142:83
	vmul.f64	d11, d17, d10
	vmul.f64	d14, d18, d10
	vmul.f64	d15, d19, d10
	.loc	11 142 45               @ /root/Bela/projects/crosssynthesis-0922/render.cpp:142:45
	bl	cosf
	vmov.f32	s19, s0
	.loc	11 142 50               @ /root/Bela/projects/crosssynthesis-0922/render.cpp:142:50
	vcvt.f32.f64	s0, d11
	.loc	11 142 45               @ /root/Bela/projects/crosssynthesis-0922/render.cpp:142:45
	bl	cosf
	vmov.f32	s18, s0
	.loc	11 142 50               @ /root/Bela/projects/crosssynthesis-0922/render.cpp:142:50
	vcvt.f32.f64	s0, d14
	.loc	11 142 45               @ /root/Bela/projects/crosssynthesis-0922/render.cpp:142:45
	bl	cosf
	vmov.f32	s17, s0
	.loc	11 142 50               @ /root/Bela/projects/crosssynthesis-0922/render.cpp:142:50
	vcvt.f32.f64	s0, d15
	.loc	11 142 45               @ /root/Bela/projects/crosssynthesis-0922/render.cpp:142:45
	bl	cosf
.Ltmp125:
	.loc	9 781 41 is_stmt 1      @ /usr/bin/../lib/gcc/arm-linux-gnueabihf/6.3.0/../../../../include/c++/6.3.0/bits/stl_vector.h:781:41
	vmov.32	r0, d12[0]
.Ltmp126:
	.loc	11 142 45               @ /root/Bela/projects/crosssynthesis-0922/render.cpp:142:45
	vmov.f32	s16, s0
	.loc	11 142 43 is_stmt 0     @ /root/Bela/projects/crosssynthesis-0922/render.cpp:142:43
	vmov.f32	q8, #1.000000e+00
.Ltmp127:
	.loc	11 140 2 is_stmt 1 discriminator 1 @ /root/Bela/projects/crosssynthesis-0922/render.cpp:140:2
	subs	r6, r6, #4
.Ltmp128:
	.loc	11 142 35               @ /root/Bela/projects/crosssynthesis-0922/render.cpp:142:35
	vmov.i32	q9, #0x3f000000
	.loc	11 142 43 is_stmt 0     @ /root/Bela/projects/crosssynthesis-0922/render.cpp:142:43
	vsub.f32	q8, q8, q4
	.loc	11 142 35               @ /root/Bela/projects/crosssynthesis-0922/render.cpp:142:35
	vmul.f32	q8, q8, q9
.Ltmp129:
	.loc	11 140 2 is_stmt 1 discriminator 1 @ /root/Bela/projects/crosssynthesis-0922/render.cpp:140:2
	vmov.i32	q9, #0x4
	vadd.i32	q6, q6, q9
.Ltmp130:
	.loc	9 781 41                @ /usr/bin/../lib/gcc/arm-linux-gnueabihf/6.3.0/../../../../include/c++/6.3.0/bits/stl_vector.h:781:41
	add	r0, r5, r0, lsl #2
.Ltmp131:
	.loc	11 142 28               @ /root/Bela/projects/crosssynthesis-0922/render.cpp:142:28
	vst1.32	{d16, d17}, [r0]
.Ltmp132:
	.loc	11 140 2 discriminator 1 @ /root/Bela/projects/crosssynthesis-0922/render.cpp:140:2
	bne	.LBB4_19
.Ltmp133:
@ BB#20:                                @ %middle.block
	@DEBUG_VALUE: resize:__new_size <- 2048
	.loc	9 656 66                @ /usr/bin/../lib/gcc/arm-linux-gnueabihf/6.3.0/../../../../include/c++/6.3.0/bits/stl_vector.h:656:66
	ldrd	r6, r7, [r4, #96]
	.loc	9 656 50 is_stmt 0      @ /usr/bin/../lib/gcc/arm-linux-gnueabihf/6.3.0/../../../../include/c++/6.3.0/bits/stl_vector.h:656:50
	sub	r0, r7, r6
	asr	r1, r0, #2
	mov	r0, #0
.Ltmp134:
	.loc	9 676 6 is_stmt 1       @ /usr/bin/../lib/gcc/arm-linux-gnueabihf/6.3.0/../../../../include/c++/6.3.0/bits/stl_vector.h:676:6
	cmp	r0, r1, lsr #11
	bne	.LBB4_22
@ BB#21:
.Ltmp135:
	.loc	9 677 4 discriminator 1 @ /usr/bin/../lib/gcc/arm-linux-gnueabihf/6.3.0/../../../../include/c++/6.3.0/bits/stl_vector.h:677:4
	add	r0, r4, #96
.Ltmp136:
	@DEBUG_VALUE: _M_erase_at_end:this <- %R0
	.loc	9 677 33 is_stmt 0      @ /usr/bin/../lib/gcc/arm-linux-gnueabihf/6.3.0/../../../../include/c++/6.3.0/bits/stl_vector.h:677:33
	rsb	r1, r1, #2048
	.loc	9 677 4 discriminator 1 @ /usr/bin/../lib/gcc/arm-linux-gnueabihf/6.3.0/../../../../include/c++/6.3.0/bits/stl_vector.h:677:4
	bl	_ZNSt6vectorIfSaIfEE17_M_default_appendEj
.Ltmp137:
	.loc	9 781 32 is_stmt 1      @ /usr/bin/../lib/gcc/arm-linux-gnueabihf/6.3.0/../../../../include/c++/6.3.0/bits/stl_vector.h:781:32
	ldr	r6, [r4, #96]
	b	.LBB4_23
.Ltmp138:
.LBB4_22:
	.loc	9 678 11                @ /usr/bin/../lib/gcc/arm-linux-gnueabihf/6.3.0/../../../../include/c++/6.3.0/bits/stl_vector.h:678:11
	cmp	r1, #2048
.Ltmp139:
	.loc	9 679 43                @ /usr/bin/../lib/gcc/arm-linux-gnueabihf/6.3.0/../../../../include/c++/6.3.0/bits/stl_vector.h:679:43
	addne	r0, r6, #8192
.Ltmp140:
	@DEBUG_VALUE: _M_erase_at_end:__pos <- %R0
	.loc	9 1437 26               @ /usr/bin/../lib/gcc/arm-linux-gnueabihf/6.3.0/../../../../include/c++/6.3.0/bits/stl_vector.h:1437:26
	strne	r0, [r4, #100]
.Ltmp141:
.LBB4_23:                               @ %vector.ph27
	adr	r0, .LCPI4_0
	mov	r5, #2048
	vld1.64	{d12, d13}, [r0:128]
.LBB4_24:                               @ %vector.body23
                                        @ =>This Inner Loop Header: Depth=1
.Ltmp142:
	.loc	11 148 82               @ /root/Bela/projects/crosssynthesis-0922/render.cpp:148:82
	vcvt.f64.s32	d16, s27
	.loc	11 148 84 is_stmt 0     @ /root/Bela/projects/crosssynthesis-0922/render.cpp:148:84
	vmul.f64	d16, d16, d10
	.loc	11 148 82               @ /root/Bela/projects/crosssynthesis-0922/render.cpp:148:82
	vcvt.f64.s32	d17, s26
	vcvt.f64.s32	d18, s25
	vcvt.f64.s32	d19, s24
	.loc	11 148 51               @ /root/Bela/projects/crosssynthesis-0922/render.cpp:148:51
	vcvt.f32.f64	s0, d16
	.loc	11 148 84               @ /root/Bela/projects/crosssynthesis-0922/render.cpp:148:84
	vmul.f64	d11, d17, d10
	vmul.f64	d14, d18, d10
	vmul.f64	d15, d19, d10
	.loc	11 148 46               @ /root/Bela/projects/crosssynthesis-0922/render.cpp:148:46
	bl	cosf
	vmov.f32	s19, s0
	.loc	11 148 51               @ /root/Bela/projects/crosssynthesis-0922/render.cpp:148:51
	vcvt.f32.f64	s0, d11
	.loc	11 148 46               @ /root/Bela/projects/crosssynthesis-0922/render.cpp:148:46
	bl	cosf
	vmov.f32	s18, s0
	.loc	11 148 51               @ /root/Bela/projects/crosssynthesis-0922/render.cpp:148:51
	vcvt.f32.f64	s0, d14
	.loc	11 148 46               @ /root/Bela/projects/crosssynthesis-0922/render.cpp:148:46
	bl	cosf
	vmov.f32	s17, s0
	.loc	11 148 51               @ /root/Bela/projects/crosssynthesis-0922/render.cpp:148:51
	vcvt.f32.f64	s0, d15
	.loc	11 148 46               @ /root/Bela/projects/crosssynthesis-0922/render.cpp:148:46
	bl	cosf
.Ltmp143:
	.loc	9 781 41 is_stmt 1      @ /usr/bin/../lib/gcc/arm-linux-gnueabihf/6.3.0/../../../../include/c++/6.3.0/bits/stl_vector.h:781:41
	vmov.32	r0, d12[0]
.Ltmp144:
	.loc	11 148 46               @ /root/Bela/projects/crosssynthesis-0922/render.cpp:148:46
	vmov.f32	s16, s0
	.loc	11 148 44 is_stmt 0     @ /root/Bela/projects/crosssynthesis-0922/render.cpp:148:44
	vmov.f32	q8, #1.000000e+00
.Ltmp145:
	.loc	11 146 2 is_stmt 1 discriminator 1 @ /root/Bela/projects/crosssynthesis-0922/render.cpp:146:2
	subs	r5, r5, #4
.Ltmp146:
	.loc	11 148 36               @ /root/Bela/projects/crosssynthesis-0922/render.cpp:148:36
	vmov.i32	q9, #0x3f000000
	.loc	11 148 44 is_stmt 0     @ /root/Bela/projects/crosssynthesis-0922/render.cpp:148:44
	vsub.f32	q8, q8, q4
	.loc	11 148 36               @ /root/Bela/projects/crosssynthesis-0922/render.cpp:148:36
	vmul.f32	q8, q8, q9
.Ltmp147:
	.loc	11 146 2 is_stmt 1 discriminator 1 @ /root/Bela/projects/crosssynthesis-0922/render.cpp:146:2
	vmov.i32	q9, #0x4
	vadd.i32	q6, q6, q9
.Ltmp148:
	.loc	9 781 41                @ /usr/bin/../lib/gcc/arm-linux-gnueabihf/6.3.0/../../../../include/c++/6.3.0/bits/stl_vector.h:781:41
	add	r0, r6, r0, lsl #2
.Ltmp149:
	.loc	11 148 29               @ /root/Bela/projects/crosssynthesis-0922/render.cpp:148:29
	vst1.32	{d16, d17}, [r0]
.Ltmp150:
	.loc	11 146 2 discriminator 1 @ /root/Bela/projects/crosssynthesis-0922/render.cpp:146:2
	bne	.LBB4_24
.Ltmp151:
@ BB#25:                                @ %middle.block24
	.loc	11 161 13               @ /root/Bela/projects/crosssynthesis-0922/render.cpp:161:13
	movw	r0, :lower16:_Z22process_fft_backgroundPv
	movw	r2, :lower16:.L.str.25
	movt	r0, :upper16:_Z22process_fft_backgroundPv
	movt	r2, :upper16:.L.str.25
	mov	r1, #50
	mov	r3, #0
	bl	Bela_createAuxiliaryTask
	mov	r5, #1
	.loc	11 161 11 is_stmt 0     @ /root/Bela/projects/crosssynthesis-0922/render.cpp:161:11
	str	r0, [r4, #20]
	b	.LBB4_27
.LBB4_26:
.Ltmp152:
	@DEBUG_VALUE: setup:context <- %R4
	.loc	11 107 11 is_stmt 1     @ /root/Bela/projects/crosssynthesis-0922/render.cpp:107:11
	movw	r0, :lower16:stderr
	.loc	11 107 3 is_stmt 0      @ /root/Bela/projects/crosssynthesis-0922/render.cpp:107:3
	mov	r1, #34
	.loc	11 107 11               @ /root/Bela/projects/crosssynthesis-0922/render.cpp:107:11
	movt	r0, :upper16:stderr
	.loc	11 107 3                @ /root/Bela/projects/crosssynthesis-0922/render.cpp:107:3
	mov	r2, #1
	.loc	11 107 11               @ /root/Bela/projects/crosssynthesis-0922/render.cpp:107:11
	ldr	r3, [r0]
	.loc	11 107 3                @ /root/Bela/projects/crosssynthesis-0922/render.cpp:107:3
	movw	r0, :lower16:.L.str.22
	movt	r0, :upper16:.L.str.22
	bl	fwrite
	mov	r5, #0
.Ltmp153:
.LBB4_27:
	.loc	11 164 1 is_stmt 1      @ /root/Bela/projects/crosssynthesis-0922/render.cpp:164:1
	mov	r0, r5
	sub	sp, r11, #88
	vpop	{d8, d9, d10, d11, d12, d13, d14, d15}
	pop	{r4, r5, r6, r7, r8, r9, r11, pc}
.Ltmp154:
	.p2align	4
@ BB#28:
.LCPI4_0:
	.long	0                       @ 0x0
	.long	1                       @ 0x1
	.long	2                       @ 0x2
	.long	3                       @ 0x3
.LCPI4_1:
	.long	4165154175              @ double 0.0030694603357008239
	.long	1063855391
.Lfunc_end4:
	.size	setup, .Lfunc_end4-setup
	.cfi_endproc
	.fnend

	.globl	_Z22process_fft_backgroundPv
	.p2align	2
	.type	_Z22process_fft_backgroundPv,%function
_Z22process_fft_backgroundPv:           @ @_Z22process_fft_backgroundPv
.Lfunc_begin5:
	.loc	11 239 0                @ /root/Bela/projects/crosssynthesis-0922/render.cpp:239:0
	.fnstart
	.cfi_startproc
@ BB#0:
	.save	{r4, r10, r11, lr}
	push	{r4, r10, r11, lr}
.Ltmp155:
	.cfi_def_cfa_offset 16
.Ltmp156:
	.cfi_offset lr, -4
.Ltmp157:
	.cfi_offset r11, -8
.Ltmp158:
	.cfi_offset r10, -12
.Ltmp159:
	.cfi_offset r4, -16
	.setfp	r11, sp, #8
	add	r11, sp, #8
.Ltmp160:
	.cfi_def_cfa r11, 8
	.pad	#8
	sub	sp, sp, #8
	@DEBUG_VALUE: process_fft_background: <- %R0
.Ltmp161:
	.loc	11 240 47 prologue_end  @ /root/Bela/projects/crosssynthesis-0922/render.cpp:240:47
	movw	r4, :lower16:.L_MergedGlobals
	movt	r4, :upper16:.L_MergedGlobals
	.loc	11 240 2 is_stmt 0      @ /root/Bela/projects/crosssynthesis-0922/render.cpp:240:2
	add	r1, r4, #60
	.loc	11 240 89               @ /root/Bela/projects/crosssynthesis-0922/render.cpp:240:89
	ldr	r0, [r4, #12]
.Ltmp162:
	.loc	11 240 2                @ /root/Bela/projects/crosssynthesis-0922/render.cpp:240:2
	add	r3, r4, #72
	.loc	11 240 47               @ /root/Bela/projects/crosssynthesis-0922/render.cpp:240:47
	ldr	r2, [r4, #24]
	.loc	11 240 2                @ /root/Bela/projects/crosssynthesis-0922/render.cpp:240:2
	str	r0, [sp]
	add	r0, r4, #48
	bl	_Z11process_fftRKSt6vectorIfSaIfEES3_jRS1_j
	.loc	11 243 59 is_stmt 1     @ /root/Bela/projects/crosssynthesis-0922/render.cpp:243:59
	ldr	r0, [r4]
	.loc	11 243 31 is_stmt 0     @ /root/Bela/projects/crosssynthesis-0922/render.cpp:243:31
	ldr	r1, [r4, #12]
	.loc	11 243 57               @ /root/Bela/projects/crosssynthesis-0922/render.cpp:243:57
	add	r0, r0, r1
	.loc	11 243 69               @ /root/Bela/projects/crosssynthesis-0922/render.cpp:243:69
	asr	r1, r0, #31
	add	r1, r0, r1, lsr #18
	bfc	r1, #0, #14
	sub	r0, r0, r1
	.loc	11 243 28               @ /root/Bela/projects/crosssynthesis-0922/render.cpp:243:28
	str	r0, [r4, #12]
	.loc	11 244 1 is_stmt 1      @ /root/Bela/projects/crosssynthesis-0922/render.cpp:244:1
	sub	sp, r11, #8
	pop	{r4, r10, r11, pc}
.Ltmp163:
.Lfunc_end5:
	.size	_Z22process_fft_backgroundPv, .Lfunc_end5-_Z22process_fft_backgroundPv
	.cfi_endproc
	.fnend

	.globl	_Z8crosspecRSt6vectorIfSaIfEES2_S2_S2_i
	.p2align	2
	.type	_Z8crosspecRSt6vectorIfSaIfEES2_S2_S2_i,%function
_Z8crosspecRSt6vectorIfSaIfEES2_S2_S2_i: @ @_Z8crosspecRSt6vectorIfSaIfEES2_S2_S2_i
.Lfunc_begin6:
	.loc	11 170 0                @ /root/Bela/projects/crosssynthesis-0922/render.cpp:170:0
	.fnstart
	.cfi_startproc
@ BB#0:
	.save	{r4, r5, r6, r7, r8, r9, r10, r11, lr}
	push	{r4, r5, r6, r7, r8, r9, r10, r11, lr}
.Ltmp164:
	.cfi_def_cfa_offset 36
.Ltmp165:
	.cfi_offset lr, -4
.Ltmp166:
	.cfi_offset r11, -8
.Ltmp167:
	.cfi_offset r10, -12
.Ltmp168:
	.cfi_offset r9, -16
.Ltmp169:
	.cfi_offset r8, -20
.Ltmp170:
	.cfi_offset r7, -24
.Ltmp171:
	.cfi_offset r6, -28
.Ltmp172:
	.cfi_offset r5, -32
.Ltmp173:
	.cfi_offset r4, -36
	.setfp	r11, sp, #28
	add	r11, sp, #28
.Ltmp174:
	.cfi_def_cfa r11, 8
	.pad	#4
	sub	sp, sp, #4
	.vsave	{d8, d9}
	vpush	{d8, d9}
.Ltmp175:
	.cfi_offset d9, -48
.Ltmp176:
	.cfi_offset d8, -56
	.pad	#16
	sub	sp, sp, #16
	@DEBUG_VALUE: crosspec:magInput <- %R0
	@DEBUG_VALUE: crosspec:phasInput <- %R1
	@DEBUG_VALUE: crosspec:outPutMag <- %R2
	@DEBUG_VALUE: crosspec:outPutPhi <- %R3
	mov	r7, r0
.Ltmp177:
	@DEBUG_VALUE: size:this <- %R7
	@DEBUG_VALUE: resize:this <- %R7
	@DEBUG_VALUE: crosspec:magInput <- %R7
	mov	r5, r1
.Ltmp178:
	@DEBUG_VALUE: crosspec:phasInput <- %R5
	.loc	9 656 66 prologue_end   @ /usr/bin/../lib/gcc/arm-linux-gnueabihf/6.3.0/../../../../include/c++/6.3.0/bits/stl_vector.h:656:66
	ldm	r7, {r0, r1}
	mov	r8, r3
.Ltmp179:
	@DEBUG_VALUE: crosspec:outPutPhi <- %R8
	mov	r6, r2
.Ltmp180:
	@DEBUG_VALUE: crosspec:outPutMag <- %R6
	.loc	9 656 50 is_stmt 0      @ /usr/bin/../lib/gcc/arm-linux-gnueabihf/6.3.0/../../../../include/c++/6.3.0/bits/stl_vector.h:656:50
	sub	r1, r1, r0
.Ltmp181:
	@DEBUG_VALUE: size:this <- %R7
	ldr	r4, [r11, #8]
.Ltmp182:
	@DEBUG_VALUE: resize:__new_size <- %R4
	@DEBUG_VALUE: crosspec:fftSize <- %R4
	asr	r1, r1, #2
.Ltmp183:
	.loc	9 676 6 is_stmt 1       @ /usr/bin/../lib/gcc/arm-linux-gnueabihf/6.3.0/../../../../include/c++/6.3.0/bits/stl_vector.h:676:6
	cmp	r1, r4
	bhs	.LBB6_2
.Ltmp184:
@ BB#1:
	@DEBUG_VALUE: crosspec:fftSize <- %R4
	@DEBUG_VALUE: resize:__new_size <- %R4
	@DEBUG_VALUE: size:this <- %R7
	@DEBUG_VALUE: crosspec:outPutMag <- %R6
	@DEBUG_VALUE: crosspec:outPutPhi <- %R8
	@DEBUG_VALUE: crosspec:phasInput <- %R5
	@DEBUG_VALUE: crosspec:magInput <- %R7
	@DEBUG_VALUE: resize:this <- %R7
	@DEBUG_VALUE: size:this <- %R7
	.loc	9 677 33                @ /usr/bin/../lib/gcc/arm-linux-gnueabihf/6.3.0/../../../../include/c++/6.3.0/bits/stl_vector.h:677:33
	sub	r1, r4, r1
	.loc	9 677 4 is_stmt 0 discriminator 1 @ /usr/bin/../lib/gcc/arm-linux-gnueabihf/6.3.0/../../../../include/c++/6.3.0/bits/stl_vector.h:677:4
	mov	r0, r7
	bl	_ZNSt6vectorIfSaIfEE17_M_default_appendEj
	b	.LBB6_3
.Ltmp185:
.LBB6_2:
	@DEBUG_VALUE: crosspec:fftSize <- %R4
	@DEBUG_VALUE: resize:__new_size <- %R4
	@DEBUG_VALUE: size:this <- %R7
	@DEBUG_VALUE: crosspec:outPutMag <- %R6
	@DEBUG_VALUE: crosspec:outPutPhi <- %R8
	@DEBUG_VALUE: crosspec:phasInput <- %R5
	@DEBUG_VALUE: crosspec:magInput <- %R7
	@DEBUG_VALUE: resize:this <- %R7
	@DEBUG_VALUE: size:this <- %R7
	.loc	9 679 43 is_stmt 1      @ /usr/bin/../lib/gcc/arm-linux-gnueabihf/6.3.0/../../../../include/c++/6.3.0/bits/stl_vector.h:679:43
	addhi	r0, r0, r4, lsl #2
.Ltmp186:
	@DEBUG_VALUE: _M_erase_at_end:__pos <- %R0
	.loc	9 1437 26               @ /usr/bin/../lib/gcc/arm-linux-gnueabihf/6.3.0/../../../../include/c++/6.3.0/bits/stl_vector.h:1437:26
	strhi	r0, [r7, #4]
.Ltmp187:
	@DEBUG_VALUE: _M_erase_at_end:this <- %R7
.LBB6_3:                                @ %_ZNSt6vectorIfSaIfEE6resizeEj.exit
	@DEBUG_VALUE: crosspec:fftSize <- %R4
	@DEBUG_VALUE: resize:__new_size <- %R4
	@DEBUG_VALUE: size:this <- %R7
	@DEBUG_VALUE: crosspec:outPutMag <- %R6
	@DEBUG_VALUE: crosspec:outPutPhi <- %R8
	@DEBUG_VALUE: crosspec:phasInput <- %R5
	@DEBUG_VALUE: crosspec:magInput <- %R7
	@DEBUG_VALUE: resize:this <- %R7
	@DEBUG_VALUE: size:this <- %R7
	@DEBUG_VALUE: size:this <- %R5
	@DEBUG_VALUE: resize:__new_size <- %R4
	.loc	9 656 66                @ /usr/bin/../lib/gcc/arm-linux-gnueabihf/6.3.0/../../../../include/c++/6.3.0/bits/stl_vector.h:656:66
	ldm	r5, {r0, r1}
	.loc	9 656 50 is_stmt 0      @ /usr/bin/../lib/gcc/arm-linux-gnueabihf/6.3.0/../../../../include/c++/6.3.0/bits/stl_vector.h:656:50
	sub	r1, r1, r0
	asr	r1, r1, #2
.Ltmp188:
	.loc	9 676 6 is_stmt 1       @ /usr/bin/../lib/gcc/arm-linux-gnueabihf/6.3.0/../../../../include/c++/6.3.0/bits/stl_vector.h:676:6
	cmp	r1, r4
	bhs	.LBB6_5
.Ltmp189:
@ BB#4:
	@DEBUG_VALUE: resize:__new_size <- %R4
	@DEBUG_VALUE: size:this <- %R5
	@DEBUG_VALUE: crosspec:fftSize <- %R4
	@DEBUG_VALUE: resize:__new_size <- %R4
	@DEBUG_VALUE: size:this <- %R7
	@DEBUG_VALUE: crosspec:outPutMag <- %R6
	@DEBUG_VALUE: crosspec:outPutPhi <- %R8
	@DEBUG_VALUE: crosspec:phasInput <- %R5
	@DEBUG_VALUE: crosspec:magInput <- %R7
	@DEBUG_VALUE: resize:this <- %R7
	@DEBUG_VALUE: size:this <- %R7
	.loc	9 677 33                @ /usr/bin/../lib/gcc/arm-linux-gnueabihf/6.3.0/../../../../include/c++/6.3.0/bits/stl_vector.h:677:33
	sub	r1, r4, r1
	.loc	9 677 4 is_stmt 0 discriminator 1 @ /usr/bin/../lib/gcc/arm-linux-gnueabihf/6.3.0/../../../../include/c++/6.3.0/bits/stl_vector.h:677:4
	mov	r0, r5
	bl	_ZNSt6vectorIfSaIfEE17_M_default_appendEj
	b	.LBB6_6
.Ltmp190:
.LBB6_5:
	@DEBUG_VALUE: resize:__new_size <- %R4
	@DEBUG_VALUE: size:this <- %R5
	@DEBUG_VALUE: crosspec:fftSize <- %R4
	@DEBUG_VALUE: resize:__new_size <- %R4
	@DEBUG_VALUE: size:this <- %R7
	@DEBUG_VALUE: crosspec:outPutMag <- %R6
	@DEBUG_VALUE: crosspec:outPutPhi <- %R8
	@DEBUG_VALUE: crosspec:phasInput <- %R5
	@DEBUG_VALUE: crosspec:magInput <- %R7
	@DEBUG_VALUE: resize:this <- %R7
	@DEBUG_VALUE: size:this <- %R7
	.loc	9 679 43 is_stmt 1      @ /usr/bin/../lib/gcc/arm-linux-gnueabihf/6.3.0/../../../../include/c++/6.3.0/bits/stl_vector.h:679:43
	addhi	r0, r0, r4, lsl #2
.Ltmp191:
	@DEBUG_VALUE: _M_erase_at_end:__pos <- %R0
	.loc	9 1437 26               @ /usr/bin/../lib/gcc/arm-linux-gnueabihf/6.3.0/../../../../include/c++/6.3.0/bits/stl_vector.h:1437:26
	strhi	r0, [r5, #4]
.Ltmp192:
	@DEBUG_VALUE: _M_erase_at_end:this <- %R5
.LBB6_6:                                @ %_ZNSt6vectorIfSaIfEE6resizeEj.exit39
	@DEBUG_VALUE: resize:__new_size <- %R4
	@DEBUG_VALUE: size:this <- %R5
	@DEBUG_VALUE: crosspec:fftSize <- %R4
	@DEBUG_VALUE: resize:__new_size <- %R4
	@DEBUG_VALUE: size:this <- %R7
	@DEBUG_VALUE: crosspec:outPutMag <- %R6
	@DEBUG_VALUE: crosspec:outPutPhi <- %R8
	@DEBUG_VALUE: crosspec:phasInput <- %R5
	@DEBUG_VALUE: crosspec:magInput <- %R7
	@DEBUG_VALUE: resize:this <- %R7
	@DEBUG_VALUE: size:this <- %R7
	@DEBUG_VALUE: size:this <- %R6
	@DEBUG_VALUE: resize:__new_size <- %R4
	.loc	9 656 66                @ /usr/bin/../lib/gcc/arm-linux-gnueabihf/6.3.0/../../../../include/c++/6.3.0/bits/stl_vector.h:656:66
	ldm	r6, {r0, r1}
	.loc	9 656 50 is_stmt 0      @ /usr/bin/../lib/gcc/arm-linux-gnueabihf/6.3.0/../../../../include/c++/6.3.0/bits/stl_vector.h:656:50
	sub	r1, r1, r0
	asr	r1, r1, #2
.Ltmp193:
	.loc	9 676 6 is_stmt 1       @ /usr/bin/../lib/gcc/arm-linux-gnueabihf/6.3.0/../../../../include/c++/6.3.0/bits/stl_vector.h:676:6
	cmp	r1, r4
	bhs	.LBB6_8
.Ltmp194:
@ BB#7:
	@DEBUG_VALUE: resize:__new_size <- %R4
	@DEBUG_VALUE: size:this <- %R6
	@DEBUG_VALUE: resize:__new_size <- %R4
	@DEBUG_VALUE: size:this <- %R5
	@DEBUG_VALUE: crosspec:fftSize <- %R4
	@DEBUG_VALUE: resize:__new_size <- %R4
	@DEBUG_VALUE: size:this <- %R7
	@DEBUG_VALUE: crosspec:outPutMag <- %R6
	@DEBUG_VALUE: crosspec:outPutPhi <- %R8
	@DEBUG_VALUE: crosspec:phasInput <- %R5
	@DEBUG_VALUE: crosspec:magInput <- %R7
	@DEBUG_VALUE: resize:this <- %R7
	@DEBUG_VALUE: size:this <- %R7
	.loc	9 677 33                @ /usr/bin/../lib/gcc/arm-linux-gnueabihf/6.3.0/../../../../include/c++/6.3.0/bits/stl_vector.h:677:33
	sub	r1, r4, r1
	.loc	9 677 4 is_stmt 0 discriminator 1 @ /usr/bin/../lib/gcc/arm-linux-gnueabihf/6.3.0/../../../../include/c++/6.3.0/bits/stl_vector.h:677:4
	mov	r0, r6
	bl	_ZNSt6vectorIfSaIfEE17_M_default_appendEj
	b	.LBB6_9
.Ltmp195:
.LBB6_8:
	@DEBUG_VALUE: resize:__new_size <- %R4
	@DEBUG_VALUE: size:this <- %R6
	@DEBUG_VALUE: resize:__new_size <- %R4
	@DEBUG_VALUE: size:this <- %R5
	@DEBUG_VALUE: crosspec:fftSize <- %R4
	@DEBUG_VALUE: resize:__new_size <- %R4
	@DEBUG_VALUE: size:this <- %R7
	@DEBUG_VALUE: crosspec:outPutMag <- %R6
	@DEBUG_VALUE: crosspec:outPutPhi <- %R8
	@DEBUG_VALUE: crosspec:phasInput <- %R5
	@DEBUG_VALUE: crosspec:magInput <- %R7
	@DEBUG_VALUE: resize:this <- %R7
	@DEBUG_VALUE: size:this <- %R7
	.loc	9 679 43 is_stmt 1      @ /usr/bin/../lib/gcc/arm-linux-gnueabihf/6.3.0/../../../../include/c++/6.3.0/bits/stl_vector.h:679:43
	addhi	r0, r0, r4, lsl #2
.Ltmp196:
	@DEBUG_VALUE: _M_erase_at_end:__pos <- %R0
	.loc	9 1437 26               @ /usr/bin/../lib/gcc/arm-linux-gnueabihf/6.3.0/../../../../include/c++/6.3.0/bits/stl_vector.h:1437:26
	strhi	r0, [r6, #4]
.Ltmp197:
	@DEBUG_VALUE: _M_erase_at_end:this <- %R6
.LBB6_9:                                @ %_ZNSt6vectorIfSaIfEE6resizeEj.exit40
	@DEBUG_VALUE: resize:__new_size <- %R4
	@DEBUG_VALUE: size:this <- %R6
	@DEBUG_VALUE: resize:__new_size <- %R4
	@DEBUG_VALUE: size:this <- %R5
	@DEBUG_VALUE: crosspec:fftSize <- %R4
	@DEBUG_VALUE: resize:__new_size <- %R4
	@DEBUG_VALUE: size:this <- %R7
	@DEBUG_VALUE: crosspec:outPutMag <- %R6
	@DEBUG_VALUE: crosspec:outPutPhi <- %R8
	@DEBUG_VALUE: crosspec:phasInput <- %R5
	@DEBUG_VALUE: crosspec:magInput <- %R7
	@DEBUG_VALUE: resize:this <- %R7
	@DEBUG_VALUE: size:this <- %R7
	@DEBUG_VALUE: size:this <- %R8
	@DEBUG_VALUE: resize:__new_size <- %R4
	.loc	9 656 66                @ /usr/bin/../lib/gcc/arm-linux-gnueabihf/6.3.0/../../../../include/c++/6.3.0/bits/stl_vector.h:656:66
	ldm	r8, {r0, r1}
	.loc	9 656 50 is_stmt 0      @ /usr/bin/../lib/gcc/arm-linux-gnueabihf/6.3.0/../../../../include/c++/6.3.0/bits/stl_vector.h:656:50
	sub	r1, r1, r0
	asr	r1, r1, #2
.Ltmp198:
	.loc	9 676 6 is_stmt 1       @ /usr/bin/../lib/gcc/arm-linux-gnueabihf/6.3.0/../../../../include/c++/6.3.0/bits/stl_vector.h:676:6
	cmp	r1, r4
	bhs	.LBB6_11
.Ltmp199:
@ BB#10:
	@DEBUG_VALUE: resize:__new_size <- %R4
	@DEBUG_VALUE: size:this <- %R8
	@DEBUG_VALUE: resize:__new_size <- %R4
	@DEBUG_VALUE: size:this <- %R6
	@DEBUG_VALUE: resize:__new_size <- %R4
	@DEBUG_VALUE: size:this <- %R5
	@DEBUG_VALUE: crosspec:fftSize <- %R4
	@DEBUG_VALUE: resize:__new_size <- %R4
	@DEBUG_VALUE: size:this <- %R7
	@DEBUG_VALUE: crosspec:outPutMag <- %R6
	@DEBUG_VALUE: crosspec:outPutPhi <- %R8
	@DEBUG_VALUE: crosspec:phasInput <- %R5
	@DEBUG_VALUE: crosspec:magInput <- %R7
	@DEBUG_VALUE: resize:this <- %R7
	@DEBUG_VALUE: size:this <- %R7
	.loc	9 677 33                @ /usr/bin/../lib/gcc/arm-linux-gnueabihf/6.3.0/../../../../include/c++/6.3.0/bits/stl_vector.h:677:33
	sub	r1, r4, r1
	.loc	9 677 4 is_stmt 0 discriminator 1 @ /usr/bin/../lib/gcc/arm-linux-gnueabihf/6.3.0/../../../../include/c++/6.3.0/bits/stl_vector.h:677:4
	mov	r0, r8
	bl	_ZNSt6vectorIfSaIfEE17_M_default_appendEj
	b	.LBB6_12
.Ltmp200:
.LBB6_11:
	@DEBUG_VALUE: resize:__new_size <- %R4
	@DEBUG_VALUE: size:this <- %R8
	@DEBUG_VALUE: resize:__new_size <- %R4
	@DEBUG_VALUE: size:this <- %R6
	@DEBUG_VALUE: resize:__new_size <- %R4
	@DEBUG_VALUE: size:this <- %R5
	@DEBUG_VALUE: crosspec:fftSize <- %R4
	@DEBUG_VALUE: resize:__new_size <- %R4
	@DEBUG_VALUE: size:this <- %R7
	@DEBUG_VALUE: crosspec:outPutMag <- %R6
	@DEBUG_VALUE: crosspec:outPutPhi <- %R8
	@DEBUG_VALUE: crosspec:phasInput <- %R5
	@DEBUG_VALUE: crosspec:magInput <- %R7
	@DEBUG_VALUE: resize:this <- %R7
	@DEBUG_VALUE: size:this <- %R7
	.loc	9 679 43 is_stmt 1      @ /usr/bin/../lib/gcc/arm-linux-gnueabihf/6.3.0/../../../../include/c++/6.3.0/bits/stl_vector.h:679:43
	addhi	r0, r0, r4, lsl #2
.Ltmp201:
	@DEBUG_VALUE: _M_erase_at_end:__pos <- %R0
	.loc	9 1437 26               @ /usr/bin/../lib/gcc/arm-linux-gnueabihf/6.3.0/../../../../include/c++/6.3.0/bits/stl_vector.h:1437:26
	strhi	r0, [r8, #4]
.Ltmp202:
	@DEBUG_VALUE: _M_erase_at_end:this <- %R8
.LBB6_12:                               @ %_ZNSt6vectorIfSaIfEE6resizeEj.exit41
	@DEBUG_VALUE: resize:__new_size <- %R4
	@DEBUG_VALUE: size:this <- %R8
	@DEBUG_VALUE: resize:__new_size <- %R4
	@DEBUG_VALUE: size:this <- %R6
	@DEBUG_VALUE: resize:__new_size <- %R4
	@DEBUG_VALUE: size:this <- %R5
	@DEBUG_VALUE: crosspec:fftSize <- %R4
	@DEBUG_VALUE: resize:__new_size <- %R4
	@DEBUG_VALUE: size:this <- %R7
	@DEBUG_VALUE: crosspec:outPutMag <- %R6
	@DEBUG_VALUE: crosspec:outPutPhi <- %R8
	@DEBUG_VALUE: crosspec:phasInput <- %R5
	@DEBUG_VALUE: crosspec:magInput <- %R7
	@DEBUG_VALUE: resize:this <- %R7
	@DEBUG_VALUE: size:this <- %R7
	@DEBUG_VALUE: operator[]:__n <- 0
	@DEBUG_VALUE: operator[]:this <- %R7
	@DEBUG_VALUE: operator[]:__n <- 0
	@DEBUG_VALUE: operator[]:this <- %R6
	.loc	9 781 32                @ /usr/bin/../lib/gcc/arm-linux-gnueabihf/6.3.0/../../../../include/c++/6.3.0/bits/stl_vector.h:781:32
	ldr	r1, [r7]
.Ltmp203:
	.loc	11 182 2 discriminator 1 @ /root/Bela/projects/crosssynthesis-0922/render.cpp:182:2
	cmp	r4, #3
.Ltmp204:
	.loc	9 781 32                @ /usr/bin/../lib/gcc/arm-linux-gnueabihf/6.3.0/../../../../include/c++/6.3.0/bits/stl_vector.h:781:32
	ldr	r0, [r6]
.Ltmp205:
	.loc	11 179 17               @ /root/Bela/projects/crosssynthesis-0922/render.cpp:179:17
	ldr	r2, [r1]
	.loc	11 179 15 is_stmt 0     @ /root/Bela/projects/crosssynthesis-0922/render.cpp:179:15
	str	r2, [r0]
.Ltmp206:
	@DEBUG_VALUE: operator[]:__n <- 1
	.loc	11 180 17 is_stmt 1     @ /root/Bela/projects/crosssynthesis-0922/render.cpp:180:17
	ldr	r2, [r1, #4]
.Ltmp207:
	@DEBUG_VALUE: crosspec:i <- 2
	@DEBUG_VALUE: operator[]:__n <- 1
	.loc	11 180 15 is_stmt 0     @ /root/Bela/projects/crosssynthesis-0922/render.cpp:180:15
	str	r2, [r0, #4]
	blt	.LBB6_15
.Ltmp208:
@ BB#13:                                @ %.lr.ph
	@DEBUG_VALUE: operator[]:this <- %R6
	@DEBUG_VALUE: operator[]:this <- %R7
	@DEBUG_VALUE: resize:__new_size <- %R4
	@DEBUG_VALUE: size:this <- %R8
	@DEBUG_VALUE: resize:__new_size <- %R4
	@DEBUG_VALUE: size:this <- %R6
	@DEBUG_VALUE: resize:__new_size <- %R4
	@DEBUG_VALUE: size:this <- %R5
	@DEBUG_VALUE: crosspec:fftSize <- %R4
	@DEBUG_VALUE: resize:__new_size <- %R4
	@DEBUG_VALUE: size:this <- %R7
	@DEBUG_VALUE: crosspec:outPutMag <- %R6
	@DEBUG_VALUE: crosspec:outPutPhi <- %R8
	@DEBUG_VALUE: crosspec:phasInput <- %R5
	@DEBUG_VALUE: crosspec:magInput <- %R7
	@DEBUG_VALUE: resize:this <- %R7
	@DEBUG_VALUE: size:this <- %R7
	.loc	11 182 2 is_stmt 1 discriminator 1 @ /root/Bela/projects/crosssynthesis-0922/render.cpp:182:2
	add	r7, r1, #8
.Ltmp209:
	.loc	9 781 32                @ /usr/bin/../lib/gcc/arm-linux-gnueabihf/6.3.0/../../../../include/c++/6.3.0/bits/stl_vector.h:781:32
	ldr	r1, [r8]
.Ltmp210:
	.loc	9 781 32 is_stmt 0      @ /usr/bin/../lib/gcc/arm-linux-gnueabihf/6.3.0/../../../../include/c++/6.3.0/bits/stl_vector.h:781:32
	ldr	r2, [r5]
.Ltmp211:
	.loc	11 182 2 is_stmt 1 discriminator 1 @ /root/Bela/projects/crosssynthesis-0922/render.cpp:182:2
	sub	r10, r4, #2
	add	r4, r0, #8
.Ltmp212:
	add	r5, r1, #8
.Ltmp213:
	add	r6, r2, #8
.Ltmp214:
	add	r8, sp, #8
.Ltmp215:
	mov	r9, sp
.LBB6_14:                               @ =>This Inner Loop Header: Depth=1
.Ltmp216:
	.loc	11 186 39               @ /root/Bela/projects/crosssynthesis-0922/render.cpp:186:39
	vldr	s2, [r6]
	.loc	11 186 23 is_stmt 0     @ /root/Bela/projects/crosssynthesis-0922/render.cpp:186:23
	vldr	s0, [r6, #4]
	.loc	11 186 39               @ /root/Bela/projects/crosssynthesis-0922/render.cpp:186:39
	vcvt.f64.f32	d1, s2
	.loc	11 186 23               @ /root/Bela/projects/crosssynthesis-0922/render.cpp:186:23
	vcvt.f64.f32	d0, s0
	.loc	11 184 22 is_stmt 1     @ /root/Bela/projects/crosssynthesis-0922/render.cpp:184:22
	vldr	s16, [r7]
	.loc	11 184 50 is_stmt 0     @ /root/Bela/projects/crosssynthesis-0922/render.cpp:184:50
	vldr	s18, [r7, #4]
	.loc	11 186 17 is_stmt 1 discriminator 2 @ /root/Bela/projects/crosssynthesis-0922/render.cpp:186:17
	bl	__atan2_finite
	.loc	11 186 17 is_stmt 0     @ /root/Bela/projects/crosssynthesis-0922/render.cpp:186:17
	vcvt.f32.f64	s0, d0
.Ltmp217:
	@DEBUG_VALUE: crosspec:phi <- %S0
	.loc	11 188 30 is_stmt 1     @ /root/Bela/projects/crosssynthesis-0922/render.cpp:188:30
	mov	r0, r8
	mov	r1, r9
	.loc	11 188 34 is_stmt 0     @ /root/Bela/projects/crosssynthesis-0922/render.cpp:188:34
	vcvt.f64.f32	d0, s0
.Ltmp218:
	.loc	11 188 30               @ /root/Bela/projects/crosssynthesis-0922/render.cpp:188:30
	bl	sincos
	.loc	11 184 34 is_stmt 1     @ /root/Bela/projects/crosssynthesis-0922/render.cpp:184:34
	vmul.f32	d16, d8, d8
	.loc	11 186 23               @ /root/Bela/projects/crosssynthesis-0922/render.cpp:186:23
	add	r6, r6, #4
	.loc	11 184 63               @ /root/Bela/projects/crosssynthesis-0922/render.cpp:184:63
	vmul.f32	d17, d9, d9
.Ltmp219:
	.loc	11 182 2 discriminator 1 @ /root/Bela/projects/crosssynthesis-0922/render.cpp:182:2
	subs	r10, r10, #1
.Ltmp220:
	.loc	11 184 50               @ /root/Bela/projects/crosssynthesis-0922/render.cpp:184:50
	add	r7, r7, #4
	.loc	11 184 48 is_stmt 0     @ /root/Bela/projects/crosssynthesis-0922/render.cpp:184:48
	vadd.f32	d0, d17, d16
	.loc	11 188 30 is_stmt 1     @ /root/Bela/projects/crosssynthesis-0922/render.cpp:188:30
	vldmia	sp, {d17, d18}
	.loc	11 184 17 discriminator 4 @ /root/Bela/projects/crosssynthesis-0922/render.cpp:184:17
	vsqrt.f32	s0, s0
.Ltmp221:
	@DEBUG_VALUE: crosspec:mag <- %S0
	.loc	11 188 26               @ /root/Bela/projects/crosssynthesis-0922/render.cpp:188:26
	vcvt.f64.f32	d16, s0
	.loc	11 188 29 is_stmt 0     @ /root/Bela/projects/crosssynthesis-0922/render.cpp:188:29
	vmul.f64	d17, d17, d16
	.loc	11 189 29 is_stmt 1     @ /root/Bela/projects/crosssynthesis-0922/render.cpp:189:29
	vmul.f64	d16, d18, d16
	.loc	11 188 25               @ /root/Bela/projects/crosssynthesis-0922/render.cpp:188:25
	vcvt.f32.f64	s0, d17
.Ltmp222:
	.loc	11 189 25               @ /root/Bela/projects/crosssynthesis-0922/render.cpp:189:25
	vcvt.f32.f64	s2, d16
	.loc	11 188 16               @ /root/Bela/projects/crosssynthesis-0922/render.cpp:188:16
	vstr	s0, [r4]
.Ltmp223:
	.loc	11 182 2 discriminator 1 @ /root/Bela/projects/crosssynthesis-0922/render.cpp:182:2
	add	r4, r4, #4
.Ltmp224:
	.loc	11 189 16               @ /root/Bela/projects/crosssynthesis-0922/render.cpp:189:16
	vstmia	r5!, {s2}
	bne	.LBB6_14
.Ltmp225:
.LBB6_15:                               @ %._crit_edge
	.loc	11 191 1                @ /root/Bela/projects/crosssynthesis-0922/render.cpp:191:1
	sub	sp, r11, #48
	vpop	{d8, d9}
	add	sp, sp, #4
	pop	{r4, r5, r6, r7, r8, r9, r10, r11, pc}
.Ltmp226:
.Lfunc_end6:
	.size	_Z8crosspecRSt6vectorIfSaIfEES2_S2_S2_i, .Lfunc_end6-_Z8crosspecRSt6vectorIfSaIfEES2_S2_S2_i
	.cfi_endproc
	.fnend

	.globl	_Z11process_fftRKSt6vectorIfSaIfEES3_jRS1_j
	.p2align	2
	.type	_Z11process_fftRKSt6vectorIfSaIfEES3_jRS1_j,%function
_Z11process_fftRKSt6vectorIfSaIfEES3_jRS1_j: @ @_Z11process_fftRKSt6vectorIfSaIfEES3_jRS1_j
.Lfunc_begin7:
	.loc	11 194 0                @ /root/Bela/projects/crosssynthesis-0922/render.cpp:194:0
	.fnstart
	.cfi_startproc
@ BB#0:
	.save	{r4, r5, r6, r7, r8, r9, r10, r11, lr}
	push	{r4, r5, r6, r7, r8, r9, r10, r11, lr}
.Ltmp233:
	.cfi_def_cfa_offset 36
.Ltmp234:
	.cfi_offset lr, -4
.Ltmp235:
	.cfi_offset r11, -8
.Ltmp236:
	.cfi_offset r10, -12
.Ltmp237:
	.cfi_offset r9, -16
.Ltmp238:
	.cfi_offset r8, -20
.Ltmp239:
	.cfi_offset r7, -24
.Ltmp240:
	.cfi_offset r6, -28
.Ltmp241:
	.cfi_offset r5, -32
.Ltmp242:
	.cfi_offset r4, -36
	.setfp	r11, sp, #28
	add	r11, sp, #28
.Ltmp243:
	.cfi_def_cfa r11, 8
	.pad	#28
	sub	sp, sp, #28
	@DEBUG_VALUE: process_fft:inBufferMag <- %R0
	@DEBUG_VALUE: process_fft:inBufferPhi <- %R1
	@DEBUG_VALUE: process_fft:inPointer <- %R2
	@DEBUG_VALUE: process_fft:outBuffer <- %R3
.Ltmp244:
	.loc	11 195 2 prologue_end   @ /root/Bela/projects/crosssynthesis-0922/render.cpp:195:2
	movw	r10, :lower16:.L_MergedGlobals.5
	str	r3, [sp, #24]           @ 4-byte Spill
.Ltmp245:
	@DEBUG_VALUE: process_fft:outBuffer <- [%SP+24]
	movt	r10, :upper16:.L_MergedGlobals.5
	mov	r9, r0
.Ltmp246:
	@DEBUG_VALUE: process_fft:inBufferMag <- %R9
	ldrb	r0, [r10]
	mov	r7, r2
.Ltmp247:
	@DEBUG_VALUE: process_fft:inPointer <- %R7
	mov	r8, r1
.Ltmp248:
	@DEBUG_VALUE: process_fft:inBufferPhi <- %R8
	dmb	ish
	tst	r0, #1
	bne	.LBB7_4
.Ltmp249:
@ BB#1:
	@DEBUG_VALUE: process_fft:inBufferPhi <- %R8
	@DEBUG_VALUE: process_fft:inPointer <- %R7
	@DEBUG_VALUE: process_fft:inBufferMag <- %R9
	@DEBUG_VALUE: process_fft:outBuffer <- [%SP+24]
	.loc	11 195 2 is_stmt 0 discriminator 1 @ /root/Bela/projects/crosssynthesis-0922/render.cpp:195:2
	movw	r4, :lower16:.L_MergedGlobals.5
	movt	r4, :upper16:.L_MergedGlobals.5
	mov	r0, r4
	bl	__cxa_guard_acquire
.Ltmp250:
	cmp	r0, #0
	beq	.LBB7_4
.Ltmp251:
@ BB#2:
	@DEBUG_VALUE: process_fft:inBufferPhi <- %R8
	@DEBUG_VALUE: process_fft:inPointer <- %R7
	@DEBUG_VALUE: process_fft:inBufferMag <- %R9
	@DEBUG_VALUE: vector:__n <- 2048
	@DEBUG_VALUE: _Vector_base:__n <- 2048
	mov	r0, #0
.Ltmp252:
	@DEBUG_VALUE: allocate:__n <- 2048
	@DEBUG_VALUE: allocate:__n <- 2048
	@DEBUG_VALUE: _M_allocate:__n <- 2048
	@DEBUG_VALUE: _M_create_storage:__n <- 2048
	.loc	9 91 25 is_stmt 1       @ /usr/bin/../lib/gcc/arm-linux-gnueabihf/6.3.0/../../../../include/c++/6.3.0/bits/stl_vector.h:91:25
	str	r0, [r4, #8]
	.loc	9 91 37 is_stmt 0       @ /usr/bin/../lib/gcc/arm-linux-gnueabihf/6.3.0/../../../../include/c++/6.3.0/bits/stl_vector.h:91:37
	str	r0, [r4, #12]
	.loc	9 91 50                 @ /usr/bin/../lib/gcc/arm-linux-gnueabihf/6.3.0/../../../../include/c++/6.3.0/bits/stl_vector.h:91:50
	str	r0, [r4, #16]
.Ltmp253:
	.loc	5 104 27 is_stmt 1      @ /usr/bin/../lib/gcc/arm-linux-gnueabihf/6.3.0/../../../../include/c++/6.3.0/ext/new_allocator.h:104:27
.Ltmp227:
	mov	r0, #8192
	bl	_Znwj
.Ltmp228:
.Ltmp254:
@ BB#3:
	@DEBUG_VALUE: process_fft:inBufferPhi <- %R8
	@DEBUG_VALUE: process_fft:inPointer <- %R7
	@DEBUG_VALUE: process_fft:inBufferMag <- %R9
	.loc	9 185 25                @ /usr/bin/../lib/gcc/arm-linux-gnueabihf/6.3.0/../../../../include/c++/6.3.0/bits/stl_vector.h:185:25
	mov	r5, r4
.Ltmp255:
	.file	57 "/usr/bin/../lib/gcc/arm-linux-gnueabihf/6.3.0/../../../../include/c++/6.3.0/bits" "stl_algobase.h"
	.loc	57 754 11               @ /usr/bin/../lib/gcc/arm-linux-gnueabihf/6.3.0/../../../../include/c++/6.3.0/bits/stl_algobase.h:754:11
	mov	r1, #0
	mov	r2, #8192
.Ltmp256:
	.loc	9 185 25                @ /usr/bin/../lib/gcc/arm-linux-gnueabihf/6.3.0/../../../../include/c++/6.3.0/bits/stl_vector.h:185:25
	str	r0, [r5, #8]!
.Ltmp257:
	@DEBUG_VALUE: _M_default_initialize:this <- %R5
	@DEBUG_VALUE: vector:this <- %R5
	.loc	9 187 59                @ /usr/bin/../lib/gcc/arm-linux-gnueabihf/6.3.0/../../../../include/c++/6.3.0/bits/stl_vector.h:187:59
	add	r6, r0, #8192
	.loc	9 187 34 is_stmt 0      @ /usr/bin/../lib/gcc/arm-linux-gnueabihf/6.3.0/../../../../include/c++/6.3.0/bits/stl_vector.h:187:34
	str	r6, [r4, #16]
.Ltmp258:
	@DEBUG_VALUE: __niter <- 2048
	@DEBUG_VALUE: __fill_n_a<float *, unsigned int, float>:__n <- 2048
	@DEBUG_VALUE: fill_n<float *, unsigned int, float>:__n <- 2048
	@DEBUG_VALUE: __uninit_default_n<float *, unsigned int>:__n <- 2048
	@DEBUG_VALUE: __uninitialized_default_n<float *, unsigned int>:__assignable <- 1
	@DEBUG_VALUE: __uninitialized_default_n<float *, unsigned int>:__n <- 2048
	@DEBUG_VALUE: __uninitialized_default_n_a<float *, unsigned int, float>:__n <- 2048
	@DEBUG_VALUE: _M_default_initialize:__n <- 2048
	.loc	57 754 11 is_stmt 1     @ /usr/bin/../lib/gcc/arm-linux-gnueabihf/6.3.0/../../../../include/c++/6.3.0/bits/stl_algobase.h:754:11
	bl	memset
.Ltmp259:
	.loc	11 195 2 discriminator 8 @ /root/Bela/projects/crosssynthesis-0922/render.cpp:195:2
	movw	r0, :lower16:_ZNSt6vectorIfSaIfEED2Ev
	movw	r2, :lower16:__dso_handle
	movt	r0, :upper16:_ZNSt6vectorIfSaIfEED2Ev
	movt	r2, :upper16:__dso_handle
	mov	r1, r5
.Ltmp260:
	.loc	9 1308 26               @ /usr/bin/../lib/gcc/arm-linux-gnueabihf/6.3.0/../../../../include/c++/6.3.0/bits/stl_vector.h:1308:26
	str	r6, [r4, #12]
.Ltmp261:
	.loc	11 195 2 discriminator 8 @ /root/Bela/projects/crosssynthesis-0922/render.cpp:195:2
	bl	__cxa_atexit
	.loc	11 195 2 is_stmt 0 discriminator 9 @ /root/Bela/projects/crosssynthesis-0922/render.cpp:195:2
	mov	r0, r4
	bl	__cxa_guard_release
.Ltmp262:
.LBB7_4:
	@DEBUG_VALUE: process_fft:inBufferPhi <- %R8
	@DEBUG_VALUE: process_fft:inPointer <- %R7
	@DEBUG_VALUE: process_fft:inBufferMag <- %R9
	.loc	11 196 2 is_stmt 1      @ /root/Bela/projects/crosssynthesis-0922/render.cpp:196:2
	ldrb	r0, [r10, #4]
	dmb	ish
	tst	r0, #1
	bne	.LBB7_8
.Ltmp263:
@ BB#5:
	@DEBUG_VALUE: process_fft:inBufferPhi <- %R8
	@DEBUG_VALUE: process_fft:inPointer <- %R7
	@DEBUG_VALUE: process_fft:inBufferMag <- %R9
	.loc	11 196 2 is_stmt 0 discriminator 1 @ /root/Bela/projects/crosssynthesis-0922/render.cpp:196:2
	add	r4, r10, #4
	mov	r0, r4
	bl	__cxa_guard_acquire
	cmp	r0, #0
	beq	.LBB7_8
.Ltmp264:
@ BB#6:
	@DEBUG_VALUE: process_fft:inBufferPhi <- %R8
	@DEBUG_VALUE: process_fft:inPointer <- %R7
	@DEBUG_VALUE: process_fft:inBufferMag <- %R9
	@DEBUG_VALUE: vector:__n <- 2048
	@DEBUG_VALUE: _Vector_base:__n <- 2048
	mov	r0, #0
.Ltmp265:
	@DEBUG_VALUE: allocate:__n <- 2048
	@DEBUG_VALUE: allocate:__n <- 2048
	@DEBUG_VALUE: _M_allocate:__n <- 2048
	@DEBUG_VALUE: _M_create_storage:__n <- 2048
	.loc	9 91 25 is_stmt 1       @ /usr/bin/../lib/gcc/arm-linux-gnueabihf/6.3.0/../../../../include/c++/6.3.0/bits/stl_vector.h:91:25
	str	r0, [r10, #20]
	.loc	9 91 37 is_stmt 0       @ /usr/bin/../lib/gcc/arm-linux-gnueabihf/6.3.0/../../../../include/c++/6.3.0/bits/stl_vector.h:91:37
	str	r0, [r10, #24]
	.loc	9 91 50                 @ /usr/bin/../lib/gcc/arm-linux-gnueabihf/6.3.0/../../../../include/c++/6.3.0/bits/stl_vector.h:91:50
	str	r0, [r10, #28]
.Ltmp266:
	.loc	5 104 27 is_stmt 1      @ /usr/bin/../lib/gcc/arm-linux-gnueabihf/6.3.0/../../../../include/c++/6.3.0/ext/new_allocator.h:104:27
.Ltmp230:
	mov	r0, #8192
	bl	_Znwj
.Ltmp231:
.Ltmp267:
@ BB#7:
	@DEBUG_VALUE: process_fft:inBufferPhi <- %R8
	@DEBUG_VALUE: process_fft:inPointer <- %R7
	@DEBUG_VALUE: process_fft:inBufferMag <- %R9
	.loc	9 185 25                @ /usr/bin/../lib/gcc/arm-linux-gnueabihf/6.3.0/../../../../include/c++/6.3.0/bits/stl_vector.h:185:25
	mov	r4, r10
.Ltmp268:
	.loc	57 754 11               @ /usr/bin/../lib/gcc/arm-linux-gnueabihf/6.3.0/../../../../include/c++/6.3.0/bits/stl_algobase.h:754:11
	mov	r1, #0
.Ltmp269:
	.loc	9 185 25                @ /usr/bin/../lib/gcc/arm-linux-gnueabihf/6.3.0/../../../../include/c++/6.3.0/bits/stl_vector.h:185:25
	str	r0, [r4, #20]!
.Ltmp270:
	@DEBUG_VALUE: _M_default_initialize:this <- %R4
	@DEBUG_VALUE: vector:this <- %R4
	.loc	57 754 11               @ /usr/bin/../lib/gcc/arm-linux-gnueabihf/6.3.0/../../../../include/c++/6.3.0/bits/stl_algobase.h:754:11
	mov	r2, #8192
.Ltmp271:
	.loc	9 187 59                @ /usr/bin/../lib/gcc/arm-linux-gnueabihf/6.3.0/../../../../include/c++/6.3.0/bits/stl_vector.h:187:59
	add	r5, r0, #8192
	.loc	9 187 34 is_stmt 0      @ /usr/bin/../lib/gcc/arm-linux-gnueabihf/6.3.0/../../../../include/c++/6.3.0/bits/stl_vector.h:187:34
	str	r5, [r4, #8]
.Ltmp272:
	@DEBUG_VALUE: __niter <- 2048
	@DEBUG_VALUE: __fill_n_a<float *, unsigned int, float>:__n <- 2048
	@DEBUG_VALUE: fill_n<float *, unsigned int, float>:__n <- 2048
	@DEBUG_VALUE: __uninit_default_n<float *, unsigned int>:__n <- 2048
	@DEBUG_VALUE: __uninitialized_default_n<float *, unsigned int>:__assignable <- 1
	@DEBUG_VALUE: __uninitialized_default_n<float *, unsigned int>:__n <- 2048
	@DEBUG_VALUE: __uninitialized_default_n_a<float *, unsigned int, float>:__n <- 2048
	@DEBUG_VALUE: _M_default_initialize:__n <- 2048
	.loc	57 754 11 is_stmt 1     @ /usr/bin/../lib/gcc/arm-linux-gnueabihf/6.3.0/../../../../include/c++/6.3.0/bits/stl_algobase.h:754:11
	bl	memset
.Ltmp273:
	.loc	11 196 2 discriminator 7 @ /root/Bela/projects/crosssynthesis-0922/render.cpp:196:2
	movw	r0, :lower16:_ZNSt6vectorIfSaIfEED2Ev
	movw	r2, :lower16:__dso_handle
	movt	r0, :upper16:_ZNSt6vectorIfSaIfEED2Ev
	movt	r2, :upper16:__dso_handle
	mov	r1, r4
.Ltmp274:
	.loc	9 1308 26               @ /usr/bin/../lib/gcc/arm-linux-gnueabihf/6.3.0/../../../../include/c++/6.3.0/bits/stl_vector.h:1308:26
	str	r5, [r4, #4]
.Ltmp275:
	.loc	11 196 2 discriminator 7 @ /root/Bela/projects/crosssynthesis-0922/render.cpp:196:2
	bl	__cxa_atexit
	.loc	11 196 2 is_stmt 0 discriminator 8 @ /root/Bela/projects/crosssynthesis-0922/render.cpp:196:2
	sub	r0, r4, #16
	bl	__cxa_guard_release
.Ltmp276:
.LBB7_8:                                @ %.preheader
	@DEBUG_VALUE: process_fft:inBufferPhi <- %R8
	@DEBUG_VALUE: process_fft:inPointer <- %R7
	@DEBUG_VALUE: process_fft:inBufferMag <- %R9
	@DEBUG_VALUE: process_fft:outPointer <- undef
	.loc	9 781 32 is_stmt 1      @ /usr/bin/../lib/gcc/arm-linux-gnueabihf/6.3.0/../../../../include/c++/6.3.0/bits/stl_vector.h:781:32
	movw	r0, :lower16:.L_MergedGlobals
.Ltmp277:
	.loc	11 199 2 discriminator 1 @ /root/Bela/projects/crosssynthesis-0922/render.cpp:199:2
	add	r1, r7, #14336
.Ltmp278:
	.loc	9 781 32                @ /usr/bin/../lib/gcc/arm-linux-gnueabihf/6.3.0/../../../../include/c++/6.3.0/bits/stl_vector.h:781:32
	movt	r0, :upper16:.L_MergedGlobals
.Ltmp279:
	.loc	9 796 32                @ /usr/bin/../lib/gcc/arm-linux-gnueabihf/6.3.0/../../../../include/c++/6.3.0/bits/stl_vector.h:796:32
	ldr	r12, [r8]
.Ltmp280:
	.loc	9 796 32 is_stmt 0      @ /usr/bin/../lib/gcc/arm-linux-gnueabihf/6.3.0/../../../../include/c++/6.3.0/bits/stl_vector.h:796:32
	ldr	lr, [r9]
	mov	r5, #0
.Ltmp281:
	.loc	9 781 32 is_stmt 1      @ /usr/bin/../lib/gcc/arm-linux-gnueabihf/6.3.0/../../../../include/c++/6.3.0/bits/stl_vector.h:781:32
	ldr	r3, [r10, #8]
.Ltmp282:
	.loc	9 781 32 is_stmt 0      @ /usr/bin/../lib/gcc/arm-linux-gnueabihf/6.3.0/../../../../include/c++/6.3.0/bits/stl_vector.h:781:32
	ldr	r7, [r10, #20]
.Ltmp283:
	.loc	9 781 32                @ /usr/bin/../lib/gcc/arm-linux-gnueabihf/6.3.0/../../../../include/c++/6.3.0/bits/stl_vector.h:781:32
	ldr	r6, [r0, #84]
.Ltmp284:
.LBB7_9:                                @ =>This Inner Loop Header: Depth=1
	.loc	11 201 70 is_stmt 1     @ /root/Bela/projects/crosssynthesis-0922/render.cpp:201:70
	mov	r0, r1
	.loc	11 202 62               @ /root/Bela/projects/crosssynthesis-0922/render.cpp:202:62
	add	r4, r6, r5
	.loc	11 201 70               @ /root/Bela/projects/crosssynthesis-0922/render.cpp:201:70
	bfc	r0, #14, #18
.Ltmp285:
	@DEBUG_VALUE: operator[]:__n <- %R0
	@DEBUG_VALUE: circularBufferIndex <- %R0
	@DEBUG_VALUE: operator[]:__n <- %R0
	.loc	11 199 2 discriminator 1 @ /root/Bela/projects/crosssynthesis-0922/render.cpp:199:2
	add	r1, r1, #1
.Ltmp286:
	.loc	11 202 62               @ /root/Bela/projects/crosssynthesis-0922/render.cpp:202:62
	vldr	s0, [r4]
.Ltmp287:
	.loc	9 796 41                @ /usr/bin/../lib/gcc/arm-linux-gnueabihf/6.3.0/../../../../include/c++/6.3.0/bits/stl_vector.h:796:41
	add	r2, lr, r0, lsl #2
.Ltmp288:
	.loc	9 796 41 is_stmt 0      @ /usr/bin/../lib/gcc/arm-linux-gnueabihf/6.3.0/../../../../include/c++/6.3.0/bits/stl_vector.h:796:41
	add	r0, r12, r0, lsl #2
.Ltmp289:
	.loc	11 202 27 is_stmt 1     @ /root/Bela/projects/crosssynthesis-0922/render.cpp:202:27
	vldr	s2, [r2]
	.loc	11 202 25 is_stmt 0     @ /root/Bela/projects/crosssynthesis-0922/render.cpp:202:25
	add	r2, r3, r5
	.loc	11 202 60               @ /root/Bela/projects/crosssynthesis-0922/render.cpp:202:60
	vmul.f32	d0, d0, d1
	.loc	11 202 25               @ /root/Bela/projects/crosssynthesis-0922/render.cpp:202:25
	vstr	s0, [r2]
	.loc	11 203 27 is_stmt 1     @ /root/Bela/projects/crosssynthesis-0922/render.cpp:203:27
	vldr	s0, [r0]
	.loc	11 203 25 is_stmt 0     @ /root/Bela/projects/crosssynthesis-0922/render.cpp:203:25
	add	r0, r7, r5
	.loc	11 203 62               @ /root/Bela/projects/crosssynthesis-0922/render.cpp:203:62
	vldr	s2, [r4]
.Ltmp290:
	.loc	11 199 2 is_stmt 1 discriminator 1 @ /root/Bela/projects/crosssynthesis-0922/render.cpp:199:2
	add	r5, r5, #4
	cmp	r5, #8192
.Ltmp291:
	.loc	11 203 60               @ /root/Bela/projects/crosssynthesis-0922/render.cpp:203:60
	vmul.f32	d0, d1, d0
	.loc	11 203 25 is_stmt 0     @ /root/Bela/projects/crosssynthesis-0922/render.cpp:203:25
	vstr	s0, [r0]
.Ltmp292:
	.loc	11 199 2 is_stmt 1 discriminator 1 @ /root/Bela/projects/crosssynthesis-0922/render.cpp:199:2
	bne	.LBB7_9
.Ltmp293:
@ BB#10:                                @ %min.iters.checked
	.loc	11 208 10               @ /root/Bela/projects/crosssynthesis-0922/render.cpp:208:10
	movw	r5, :lower16:.L_MergedGlobals.2
	add	r1, r10, #8
.Ltmp294:
	@DEBUG_VALUE: operator[]:this <- %R1
	movt	r5, :upper16:.L_MergedGlobals.2
	add	r0, r5, #36
	bl	_ZN3Fft3fftERKSt6vectorIfSaIfEE
.Ltmp295:
	.loc	11 209 10               @ /root/Bela/projects/crosssynthesis-0922/render.cpp:209:10
	add	r0, r5, #52
	add	r1, r10, #20
.Ltmp296:
	@DEBUG_VALUE: operator[]:this <- %R1
	bl	_ZN3Fft3fftERKSt6vectorIfSaIfEE
.Ltmp297:
	.loc	2 43 38                 @ ./libraries/Fft/Fft.h:43:38
	ldr	r3, [r5, #56]
.Ltmp298:
	.loc	11 211 2 discriminator 1 @ /root/Bela/projects/crosssynthesis-0922/render.cpp:211:2
	mov	r7, #0
.Ltmp299:
	.loc	9 781 32                @ /usr/bin/../lib/gcc/arm-linux-gnueabihf/6.3.0/../../../../include/c++/6.3.0/bits/stl_vector.h:781:32
	ldr	r4, [r5]
.Ltmp300:
	.loc	11 211 2 discriminator 1 @ /root/Bela/projects/crosssynthesis-0922/render.cpp:211:2
	mov	r8, #0
	add	r1, r3, #4
	str	r3, [sp, #20]           @ 4-byte Spill
	add	r2, r4, #8192
.Ltmp301:
	.loc	2 39 38                 @ ./libraries/Fft/Fft.h:39:38
	ldr	r10, [r5, #40]
.Ltmp302:
	.loc	11 211 2 discriminator 1 @ /root/Bela/projects/crosssynthesis-0922/render.cpp:211:2
	cmp	r1, r2
	mov	r5, #0
	movwlo	r7, #1
	mov	r9, #0
	str	r7, [sp, #8]            @ 4-byte Spill
	add	r7, r3, #16384
	cmp	r4, r7
	mov	r3, #0
	movwlo	r3, #1
	mov	r12, #0
	str	r3, [sp, #4]            @ 4-byte Spill
.Ltmp303:
	.loc	9 781 32                @ /usr/bin/../lib/gcc/arm-linux-gnueabihf/6.3.0/../../../../include/c++/6.3.0/bits/stl_vector.h:781:32
	movw	r3, :lower16:.L_MergedGlobals
	movt	r3, :upper16:.L_MergedGlobals
.Ltmp304:
	.loc	11 211 2 discriminator 1 @ /root/Bela/projects/crosssynthesis-0922/render.cpp:211:2
	mov	lr, #0
.Ltmp305:
	.loc	9 781 32                @ /usr/bin/../lib/gcc/arm-linux-gnueabihf/6.3.0/../../../../include/c++/6.3.0/bits/stl_vector.h:781:32
	ldr	r6, [r3, #108]
	mov	r0, #0
.Ltmp306:
	.loc	11 211 2 discriminator 1 @ /root/Bela/projects/crosssynthesis-0922/render.cpp:211:2
	add	r3, r6, #8192
	cmp	r1, r3
	movwlo	r5, #1
	cmp	r6, r7
	mov	r7, #0
	str	r5, [sp, #16]           @ 4-byte Spill
	movwlo	r7, #1
	cmp	r6, r2
	str	r7, [sp, #12]           @ 4-byte Spill
	mov	r7, #0
	movwlo	r7, #1
	cmp	r10, r2
	movw	r2, #16380
	add	r5, r10, r2
	movwlo	r8, #1
	cmp	r4, r5
	movwlo	r9, #1
	cmp	r4, r3
	movwlo	r12, #1
	cmp	r10, r3
	mov	r2, #0
	movwlo	r2, #1
	cmp	r6, r5
	movwlo	lr, #1
	tst	r7, r12
.Ltmp307:
	@DEBUG_VALUE: i <- 0
	mov	r7, #0
	bne	.LBB7_18
@ BB#11:                                @ %min.iters.checked
	mov	r7, #0
	ands	r2, lr, r2
	bne	.LBB7_18
@ BB#12:                                @ %min.iters.checked
	ldr	r2, [sp, #16]           @ 4-byte Reload
	mov	r7, #0
	ldr	r3, [sp, #12]           @ 4-byte Reload
	ands	r2, r3, r2
	bne	.LBB7_18
@ BB#13:                                @ %min.iters.checked
	mov	r7, #0
	ands	r2, r9, r8
	bne	.LBB7_18
@ BB#14:                                @ %min.iters.checked
	ldr	r2, [sp, #8]            @ 4-byte Reload
	mov	r7, #0
	ldr	r3, [sp, #4]            @ 4-byte Reload
	ands	r2, r3, r2
	bne	.LBB7_18
@ BB#15:                                @ %vector.body.preheader
	movw	r7, #2044
	.loc	11 211 31 is_stmt 0 discriminator 3 @ /root/Bela/projects/crosssynthesis-0922/render.cpp:211:31
	movw	r3, #2044
	mov	r5, r4
	mov	lr, r6
	mov	r2, r10
.LBB7_16:                               @ %vector.body
                                        @ =>This Inner Loop Header: Depth=1
.Ltmp308:
	.loc	11 212 25 is_stmt 1     @ /root/Bela/projects/crosssynthesis-0922/render.cpp:212:25
	vld2.32	{d16, d17, d18, d19}, [r2]!
.Ltmp309:
	.loc	11 211 2 discriminator 1 @ /root/Bela/projects/crosssynthesis-0922/render.cpp:211:2
	subs	r3, r3, #4
.Ltmp310:
	.loc	11 212 15               @ /root/Bela/projects/crosssynthesis-0922/render.cpp:212:15
	vst1.32	{d16, d17}, [r6]!
	.loc	11 213 26               @ /root/Bela/projects/crosssynthesis-0922/render.cpp:213:26
	vld2.32	{d16, d17, d18, d19}, [r1]!
	.loc	11 213 16 is_stmt 0     @ /root/Bela/projects/crosssynthesis-0922/render.cpp:213:16
	vst1.32	{d16, d17}, [r5]!
	bne	.LBB7_16
@ BB#17:
	mov	r6, lr
.LBB7_18:                               @ %scalar.ph.preheader
.Ltmp311:
	.loc	2 0 0 is_stmt 1         @ ./libraries/Fft/Fft.h:0:0
	add	r2, r6, r7, lsl #2
	ldr	r6, [sp, #20]           @ 4-byte Reload
	add	r1, r10, r7, lsl #3
	add	r3, r4, r7, lsl #2
	add	r6, r6, r7, lsl #3
	sub	r7, r7, #2048
	add	r6, r6, #4
.Ltmp312:
.LBB7_19:                               @ %scalar.ph
                                        @ =>This Inner Loop Header: Depth=1
	.loc	11 212 25               @ /root/Bela/projects/crosssynthesis-0922/render.cpp:212:25
	ldr	r5, [r1, -r0, lsl #3]
	.loc	11 212 15 is_stmt 0     @ /root/Bela/projects/crosssynthesis-0922/render.cpp:212:15
	str	r5, [r2, -r0, lsl #2]
	.loc	11 213 26 is_stmt 1     @ /root/Bela/projects/crosssynthesis-0922/render.cpp:213:26
	ldr	r5, [r6, -r0, lsl #3]
	.loc	11 213 16 is_stmt 0     @ /root/Bela/projects/crosssynthesis-0922/render.cpp:213:16
	str	r5, [r3, -r0, lsl #2]
.Ltmp313:
	.loc	11 211 2 is_stmt 1 discriminator 1 @ /root/Bela/projects/crosssynthesis-0922/render.cpp:211:2
	sub	r0, r0, #1
	cmp	r7, r0
	bne	.LBB7_19
.Ltmp314:
@ BB#20:                                @ %.loopexit
	.loc	11 216 2                @ /root/Bela/projects/crosssynthesis-0922/render.cpp:216:2
	mov	r0, #2048
	.loc	11 208 10               @ /root/Bela/projects/crosssynthesis-0922/render.cpp:208:10
	movw	r7, :lower16:.L_MergedGlobals.2
	.loc	11 216 2                @ /root/Bela/projects/crosssynthesis-0922/render.cpp:216:2
	str	r0, [sp]
.Ltmp315:
	.loc	9 781 32                @ /usr/bin/../lib/gcc/arm-linux-gnueabihf/6.3.0/../../../../include/c++/6.3.0/bits/stl_vector.h:781:32
	movw	r0, :lower16:.L_MergedGlobals
.Ltmp316:
	.loc	11 208 10               @ /root/Bela/projects/crosssynthesis-0922/render.cpp:208:10
	movt	r7, :upper16:.L_MergedGlobals.2
.Ltmp317:
	@DEBUG_VALUE: operator[]:this <- %R7
	.loc	9 781 32                @ /usr/bin/../lib/gcc/arm-linux-gnueabihf/6.3.0/../../../../include/c++/6.3.0/bits/stl_vector.h:781:32
	movt	r0, :upper16:.L_MergedGlobals
.Ltmp318:
	.loc	11 216 2                @ /root/Bela/projects/crosssynthesis-0922/render.cpp:216:2
	add	r4, r7, #12
	add	r6, r7, #24
	mov	r5, r0
	add	r0, r5, #108
.Ltmp319:
	@DEBUG_VALUE: operator[]:this <- undef
	@DEBUG_VALUE: operator[]:this <- %R0
	mov	r1, r7
	mov	r2, r4
	mov	r3, r6
	bl	_Z8crosspecRSt6vectorIfSaIfEES2_S2_S2_i
.Ltmp320:
	.loc	11 217 11               @ /root/Bela/projects/crosssynthesis-0922/render.cpp:217:11
	add	r0, r7, #68
	mov	r1, r4
	mov	r2, r6
	bl	_ZN3Fft4ifftERKSt6vectorIfSaIfEES4_
.Ltmp321:
	.loc	9 781 32                @ /usr/bin/../lib/gcc/arm-linux-gnueabihf/6.3.0/../../../../include/c++/6.3.0/bits/stl_vector.h:781:32
	ldr	r0, [sp, #24]           @ 4-byte Reload
	ldr	r1, [r11, #8]
.Ltmp322:
	.loc	2 52 37                 @ ./libraries/Fft/Fft.h:52:37
	ldr	r3, [r7, #68]
	mov	r7, #0
.Ltmp323:
	@DEBUG_VALUE: n <- 0
	.loc	9 781 32                @ /usr/bin/../lib/gcc/arm-linux-gnueabihf/6.3.0/../../../../include/c++/6.3.0/bits/stl_vector.h:781:32
	ldr	r0, [r0]
.Ltmp324:
	.loc	11 231 2 discriminator 1 @ /root/Bela/projects/crosssynthesis-0922/render.cpp:231:2
	add	r4, r1, #14336
.Ltmp325:
	.loc	9 781 32                @ /usr/bin/../lib/gcc/arm-linux-gnueabihf/6.3.0/../../../../include/c++/6.3.0/bits/stl_vector.h:781:32
	ldr	r2, [r5, #96]
.Ltmp326:
.LBB7_21:                               @ =>This Inner Loop Header: Depth=1
	.loc	11 233 54               @ /root/Bela/projects/crosssynthesis-0922/render.cpp:233:54
	add	r6, r2, r7
	.loc	11 233 46 is_stmt 0     @ /root/Bela/projects/crosssynthesis-0922/render.cpp:233:46
	add	r5, r3, r7
	.loc	11 232 71 is_stmt 1     @ /root/Bela/projects/crosssynthesis-0922/render.cpp:232:71
	mov	r1, r4
.Ltmp327:
	.loc	11 231 2 discriminator 1 @ /root/Bela/projects/crosssynthesis-0922/render.cpp:231:2
	add	r7, r7, #4
.Ltmp328:
	.loc	11 232 71               @ /root/Bela/projects/crosssynthesis-0922/render.cpp:232:71
	bfc	r1, #14, #18
.Ltmp329:
	@DEBUG_VALUE: circularBufferIndex <- %R1
	@DEBUG_VALUE: operator[]:__n <- %R1
	.loc	11 233 46               @ /root/Bela/projects/crosssynthesis-0922/render.cpp:233:46
	vldr	s0, [r5]
	.loc	11 233 54 is_stmt 0     @ /root/Bela/projects/crosssynthesis-0922/render.cpp:233:54
	vldr	s2, [r6]
.Ltmp330:
	.loc	11 231 2 is_stmt 1 discriminator 1 @ /root/Bela/projects/crosssynthesis-0922/render.cpp:231:2
	add	r4, r4, #1
.Ltmp331:
	.loc	9 781 41                @ /usr/bin/../lib/gcc/arm-linux-gnueabihf/6.3.0/../../../../include/c++/6.3.0/bits/stl_vector.h:781:41
	add	r1, r0, r1, lsl #2
.Ltmp332:
	.loc	11 231 2 discriminator 1 @ /root/Bela/projects/crosssynthesis-0922/render.cpp:231:2
	cmp	r7, #8192
.Ltmp333:
	.loc	11 233 52               @ /root/Bela/projects/crosssynthesis-0922/render.cpp:233:52
	vmul.f32	d16, d1, d0
	.loc	11 233 34 is_stmt 0     @ /root/Bela/projects/crosssynthesis-0922/render.cpp:233:34
	vldr	s0, [r1]
	vadd.f32	d0, d0, d16
	vstr	s0, [r1]
	bne	.LBB7_21
.Ltmp334:
@ BB#22:
	.loc	11 235 1 is_stmt 1 discriminator 2 @ /root/Bela/projects/crosssynthesis-0922/render.cpp:235:1
	sub	sp, r11, #28
	pop	{r4, r5, r6, r7, r8, r9, r10, r11, pc}
.LBB7_23:
.Ltmp335:
	@DEBUG_VALUE: process_fft:inBufferPhi <- %R8
	@DEBUG_VALUE: process_fft:inPointer <- %R7
	@DEBUG_VALUE: process_fft:inBufferMag <- %R9
.Ltmp232:
	mov	r5, r0
	.loc	11 196 2 discriminator 10 @ /root/Bela/projects/crosssynthesis-0922/render.cpp:196:2
	mov	r0, r4
	b	.LBB7_25
.Ltmp336:
.LBB7_24:
	@DEBUG_VALUE: process_fft:inBufferPhi <- %R8
	@DEBUG_VALUE: process_fft:inPointer <- %R7
	@DEBUG_VALUE: process_fft:inBufferMag <- %R9
.Ltmp229:
	mov	r5, r0
	.loc	11 195 2 discriminator 11 @ /root/Bela/projects/crosssynthesis-0922/render.cpp:195:2
	movw	r0, :lower16:.L_MergedGlobals.5
	movt	r0, :upper16:.L_MergedGlobals.5
.Ltmp337:
.LBB7_25:
	@DEBUG_VALUE: process_fft:inBufferPhi <- %R8
	@DEBUG_VALUE: process_fft:inPointer <- %R7
	@DEBUG_VALUE: process_fft:inBufferMag <- %R9
	bl	__cxa_guard_abort
	mov	r0, r5
	mov	lr, pc
	b	_Unwind_Resume
.Ltmp338:
.Lfunc_end7:
	.size	_Z11process_fftRKSt6vectorIfSaIfEES3_jRS1_j, .Lfunc_end7-_Z11process_fftRKSt6vectorIfSaIfEES3_jRS1_j
	.cfi_endproc
	.file	58 "/usr/bin/../lib/gcc/arm-linux-gnueabihf/6.3.0/../../../../include/c++/6.3.0/ext" "type_traits.h"
	.file	59 "/usr/bin/../lib/gcc/arm-linux-gnueabihf/6.3.0/../../../../include/c++/6.3.0/bits" "stl_uninitialized.h"
	.globl	__gxx_personality_v0
	.personality __gxx_personality_v0
	.handlerdata
	.p2align	2
GCC_except_table7:
.Lexception1:
	.byte	255                     @ @LPStart Encoding = omit
	.byte	0                       @ @TType Encoding = absptr
	.asciz	"\266\200\200"          @ @TType base offset
	.byte	3                       @ Call site Encoding = udata4
	.byte	52                      @ Call site table length
	.long	.Ltmp227-.Lfunc_begin7  @ >> Call Site 1 <<
	.long	.Ltmp228-.Ltmp227       @   Call between .Ltmp227 and .Ltmp228
	.long	.Ltmp229-.Lfunc_begin7  @     jumps to .Ltmp229
	.byte	0                       @   On action: cleanup
	.long	.Ltmp228-.Lfunc_begin7  @ >> Call Site 2 <<
	.long	.Ltmp230-.Ltmp228       @   Call between .Ltmp228 and .Ltmp230
	.long	0                       @     has no landing pad
	.byte	0                       @   On action: cleanup
	.long	.Ltmp230-.Lfunc_begin7  @ >> Call Site 3 <<
	.long	.Ltmp231-.Ltmp230       @   Call between .Ltmp230 and .Ltmp231
	.long	.Ltmp232-.Lfunc_begin7  @     jumps to .Ltmp232
	.byte	0                       @   On action: cleanup
	.long	.Ltmp231-.Lfunc_begin7  @ >> Call Site 4 <<
	.long	.Lfunc_end7-.Ltmp231    @   Call between .Ltmp231 and .Lfunc_end7
	.long	0                       @     has no landing pad
	.byte	0                       @   On action: cleanup
	.p2align	2
	.fnend

	.globl	_Z18recalculate_windowj
	.p2align	4
	.type	_Z18recalculate_windowj,%function
_Z18recalculate_windowj:                @ @_Z18recalculate_windowj
.Lfunc_begin8:
	.loc	11 246 0                @ /root/Bela/projects/crosssynthesis-0922/render.cpp:246:0
	.fnstart
	.cfi_startproc
@ BB#0:
	.save	{r4, r5, r6, r7, r8, r10, r11, lr}
	push	{r4, r5, r6, r7, r8, r10, r11, lr}
.Ltmp339:
	.cfi_def_cfa_offset 32
.Ltmp340:
	.cfi_offset lr, -4
.Ltmp341:
	.cfi_offset r11, -8
.Ltmp342:
	.cfi_offset r10, -12
.Ltmp343:
	.cfi_offset r8, -16
.Ltmp344:
	.cfi_offset r7, -20
.Ltmp345:
	.cfi_offset r6, -24
.Ltmp346:
	.cfi_offset r5, -28
.Ltmp347:
	.cfi_offset r4, -32
	.setfp	r11, sp, #24
	add	r11, sp, #24
.Ltmp348:
	.cfi_def_cfa r11, 8
	.vsave	{d8, d9, d10, d11, d12, d13, d14, d15}
	vpush	{d8, d9, d10, d11, d12, d13, d14, d15}
.Ltmp349:
	.cfi_offset d15, -40
.Ltmp350:
	.cfi_offset d14, -48
.Ltmp351:
	.cfi_offset d13, -56
.Ltmp352:
	.cfi_offset d12, -64
.Ltmp353:
	.cfi_offset d11, -72
.Ltmp354:
	.cfi_offset d10, -80
.Ltmp355:
	.cfi_offset d9, -88
.Ltmp356:
	.cfi_offset d8, -96
	.pad	#8
	sub	sp, sp, #8
	@DEBUG_VALUE: recalculate_window:length <- %R0
	mov	r4, r0
.Ltmp357:
	@DEBUG_VALUE: recalculate_window:length <- %R4
	.loc	9 656 40 prologue_end   @ /usr/bin/../lib/gcc/arm-linux-gnueabihf/6.3.0/../../../../include/c++/6.3.0/bits/stl_vector.h:656:40
	movw	r0, :lower16:.L_MergedGlobals
	movt	r0, :upper16:.L_MergedGlobals
	ldr	r1, [r0, #88]
	.loc	9 656 66 is_stmt 0      @ /usr/bin/../lib/gcc/arm-linux-gnueabihf/6.3.0/../../../../include/c++/6.3.0/bits/stl_vector.h:656:66
	ldr	r5, [r0, #84]
.Ltmp358:
	.loc	9 656 66                @ /usr/bin/../lib/gcc/arm-linux-gnueabihf/6.3.0/../../../../include/c++/6.3.0/bits/stl_vector.h:656:66
	ldrd	r6, r7, [r0, #96]
.Ltmp359:
	.loc	9 656 50                @ /usr/bin/../lib/gcc/arm-linux-gnueabihf/6.3.0/../../../../include/c++/6.3.0/bits/stl_vector.h:656:50
	sub	r0, r1, r5
	asr	r1, r0, #2
.Ltmp360:
	@DEBUG_VALUE: recalculate_window:length <- %R1
	.loc	11 247 5 is_stmt 1      @ /root/Bela/projects/crosssynthesis-0922/render.cpp:247:5
	cmp	r1, r4
	asrlo	r4, r0, #2
.Ltmp361:
	.loc	9 656 50                @ /usr/bin/../lib/gcc/arm-linux-gnueabihf/6.3.0/../../../../include/c++/6.3.0/bits/stl_vector.h:656:50
	sub	r0, r7, r6
.Ltmp362:
	.loc	11 250 5                @ /root/Bela/projects/crosssynthesis-0922/render.cpp:250:5
	cmp	r4, r0, asr #2
	asrhi	r4, r0, #2
.Ltmp363:
	.loc	11 253 2 discriminator 1 @ /root/Bela/projects/crosssynthesis-0922/render.cpp:253:2
	cmp	r4, #0
	beq	.LBB8_9
.Ltmp364:
@ BB#1:                                 @ %.lr.ph
	@DEBUG_VALUE: recalculate_window:length <- %R1
	.loc	11 254 100              @ /root/Bela/projects/crosssynthesis-0922/render.cpp:254:100
	sub	r0, r4, #1
	mov	r7, #0
.Ltmp365:
	.loc	11 253 2 discriminator 1 @ /root/Bela/projects/crosssynthesis-0922/render.cpp:253:2
	cmp	r4, #3
.Ltmp366:
	.loc	11 254 92               @ /root/Bela/projects/crosssynthesis-0922/render.cpp:254:92
	vmov	s0, r0
	vcvt.f32.u32	d0, d0
	.loc	11 254 85 is_stmt 0     @ /root/Bela/projects/crosssynthesis-0922/render.cpp:254:85
	vcvt.f64.f32	d10, s0
	bls	.LBB8_7
.Ltmp367:
@ BB#2:                                 @ %min.iters.checked
	@DEBUG_VALUE: recalculate_window:length <- %R1
	.loc	11 253 2 is_stmt 1 discriminator 1 @ /root/Bela/projects/crosssynthesis-0922/render.cpp:253:2
	mov	r8, r4
	bfc	r8, #0, #2
	cmp	r8, #0
	beq	.LBB8_7
.Ltmp368:
@ BB#3:                                 @ %vector.memcheck
	@DEBUG_VALUE: recalculate_window:length <- %R1
	add	r0, r6, r4, lsl #2
	cmp	r5, r0
	addlo	r0, r5, r4, lsl #2
	cmplo	r6, r0
	blo	.LBB8_7
.Ltmp369:
@ BB#4:                                 @ %vector.ph
	@DEBUG_VALUE: recalculate_window:length <- %R1
	vmov.f64	d11, d10
	adr	r0, .LCPI8_0
	.loc	11 253 29 is_stmt 0 discriminator 3 @ /root/Bela/projects/crosssynthesis-0922/render.cpp:253:29
	mov	r7, r8
	vld1.64	{d12, d13}, [r0:128]
.Ltmp370:
.LBB8_5:                                @ %vector.body
                                        @ =>This Inner Loop Header: Depth=1
	.loc	11 254 81 is_stmt 1     @ /root/Bela/projects/crosssynthesis-0922/render.cpp:254:81
	vcvt.f64.s32	d16, s27
	.loc	11 254 79 is_stmt 0     @ /root/Bela/projects/crosssynthesis-0922/render.cpp:254:79
	vldr	d20, .LCPI8_1
	.loc	11 254 81               @ /root/Bela/projects/crosssynthesis-0922/render.cpp:254:81
	vcvt.f64.s32	d17, s26
	vcvt.f64.s32	d18, s25
	vcvt.f64.s32	d19, s24
	.loc	11 254 79               @ /root/Bela/projects/crosssynthesis-0922/render.cpp:254:79
	vmul.f64	d16, d16, d20
	vmul.f64	d17, d17, d20
	vmul.f64	d19, d19, d20
	.loc	11 254 83               @ /root/Bela/projects/crosssynthesis-0922/render.cpp:254:83
	vdiv.f64	d16, d16, d11
	vdiv.f64	d15, d17, d10
	vdiv.f64	d17, d19, d10
	.loc	11 254 79               @ /root/Bela/projects/crosssynthesis-0922/render.cpp:254:79
	vmul.f64	d18, d18, d20
	.loc	11 254 50               @ /root/Bela/projects/crosssynthesis-0922/render.cpp:254:50
	vcvt.f32.f64	s0, d16
	.loc	11 254 83               @ /root/Bela/projects/crosssynthesis-0922/render.cpp:254:83
	vdiv.f64	d14, d18, d11
	.loc	11 254 50               @ /root/Bela/projects/crosssynthesis-0922/render.cpp:254:50
	vstr	d17, [sp]               @ 8-byte Spill
	.loc	11 254 45               @ /root/Bela/projects/crosssynthesis-0922/render.cpp:254:45
	bl	cosf
	vmov.f32	s19, s0
	.loc	11 254 50               @ /root/Bela/projects/crosssynthesis-0922/render.cpp:254:50
	vcvt.f32.f64	s0, d15
	.loc	11 254 45               @ /root/Bela/projects/crosssynthesis-0922/render.cpp:254:45
	bl	cosf
	vmov.f32	s18, s0
	.loc	11 254 50               @ /root/Bela/projects/crosssynthesis-0922/render.cpp:254:50
	vcvt.f32.f64	s0, d14
	.loc	11 254 45               @ /root/Bela/projects/crosssynthesis-0922/render.cpp:254:45
	bl	cosf
	.loc	11 254 50               @ /root/Bela/projects/crosssynthesis-0922/render.cpp:254:50
	vldr	d16, [sp]               @ 8-byte Reload
	.loc	11 254 45               @ /root/Bela/projects/crosssynthesis-0922/render.cpp:254:45
	vmov.f32	s17, s0
	.loc	11 254 50               @ /root/Bela/projects/crosssynthesis-0922/render.cpp:254:50
	vcvt.f32.f64	s0, d16
	.loc	11 254 45               @ /root/Bela/projects/crosssynthesis-0922/render.cpp:254:45
	bl	cosf
.Ltmp371:
	.loc	9 781 41 is_stmt 1      @ /usr/bin/../lib/gcc/arm-linux-gnueabihf/6.3.0/../../../../include/c++/6.3.0/bits/stl_vector.h:781:41
	vmov.32	r0, d12[0]
.Ltmp372:
	.loc	11 254 45               @ /root/Bela/projects/crosssynthesis-0922/render.cpp:254:45
	vmov.f32	s16, s0
	.loc	11 254 43 is_stmt 0     @ /root/Bela/projects/crosssynthesis-0922/render.cpp:254:43
	vmov.f32	q8, #1.000000e+00
.Ltmp373:
	.loc	11 253 2 is_stmt 1 discriminator 1 @ /root/Bela/projects/crosssynthesis-0922/render.cpp:253:2
	subs	r7, r7, #4
.Ltmp374:
	.loc	11 254 35               @ /root/Bela/projects/crosssynthesis-0922/render.cpp:254:35
	vmov.i32	q9, #0x3f000000
	.loc	11 254 43 is_stmt 0     @ /root/Bela/projects/crosssynthesis-0922/render.cpp:254:43
	vsub.f32	q8, q8, q4
	.loc	11 254 35               @ /root/Bela/projects/crosssynthesis-0922/render.cpp:254:35
	vmul.f32	q8, q8, q9
.Ltmp375:
	.loc	11 253 2 is_stmt 1 discriminator 1 @ /root/Bela/projects/crosssynthesis-0922/render.cpp:253:2
	vmov.i32	q9, #0x4
	vadd.i32	q6, q6, q9
.Ltmp376:
	.loc	9 781 41                @ /usr/bin/../lib/gcc/arm-linux-gnueabihf/6.3.0/../../../../include/c++/6.3.0/bits/stl_vector.h:781:41
	add	r1, r5, r0, lsl #2
.Ltmp377:
	.loc	9 781 41 is_stmt 0      @ /usr/bin/../lib/gcc/arm-linux-gnueabihf/6.3.0/../../../../include/c++/6.3.0/bits/stl_vector.h:781:41
	add	r0, r6, r0, lsl #2
.Ltmp378:
	.loc	11 254 28 is_stmt 1     @ /root/Bela/projects/crosssynthesis-0922/render.cpp:254:28
	vst1.32	{d16, d17}, [r1]
	.loc	11 255 29               @ /root/Bela/projects/crosssynthesis-0922/render.cpp:255:29
	vst1.32	{d16, d17}, [r0]
.Ltmp379:
	.loc	11 253 2 discriminator 1 @ /root/Bela/projects/crosssynthesis-0922/render.cpp:253:2
	bne	.LBB8_5
@ BB#6:                                 @ %middle.block
	mov	r7, r8
	cmp	r4, r8
	beq	.LBB8_9
.LBB8_7:                                @ %scalar.ph.preheader
.Ltmp380:
	.loc	11 254 43               @ /root/Bela/projects/crosssynthesis-0922/render.cpp:254:43
	vmov.f32	d9, #1.000000e+00
	.loc	11 254 81 is_stmt 0     @ /root/Bela/projects/crosssynthesis-0922/render.cpp:254:81
	add	r5, r5, r7, lsl #2
	.loc	11 254 35               @ /root/Bela/projects/crosssynthesis-0922/render.cpp:254:35
	vmov.f32	d12, #5.000000e-01
	.loc	11 254 81               @ /root/Bela/projects/crosssynthesis-0922/render.cpp:254:81
	add	r6, r6, r7, lsl #2
	.loc	11 254 79               @ /root/Bela/projects/crosssynthesis-0922/render.cpp:254:79
	vldr	d8, .LCPI8_1
.LBB8_8:                                @ %scalar.ph
                                        @ =>This Inner Loop Header: Depth=1
.Ltmp381:
	@DEBUG_VALUE: operator[]:__n <- %R7
	.loc	11 254 81               @ /root/Bela/projects/crosssynthesis-0922/render.cpp:254:81
	vmov	s0, r7
	vcvt.f64.s32	d16, s0
	.loc	11 254 79               @ /root/Bela/projects/crosssynthesis-0922/render.cpp:254:79
	vmul.f64	d16, d16, d8
	.loc	11 254 83               @ /root/Bela/projects/crosssynthesis-0922/render.cpp:254:83
	vdiv.f64	d16, d16, d10
	.loc	11 254 50               @ /root/Bela/projects/crosssynthesis-0922/render.cpp:254:50
	vcvt.f32.f64	s0, d16
	.loc	11 254 45               @ /root/Bela/projects/crosssynthesis-0922/render.cpp:254:45
	bl	cosf
                                        @ kill: %S0<def> %S0<kill> %D0<def>
.Ltmp382:
	.loc	11 253 29 is_stmt 1 discriminator 3 @ /root/Bela/projects/crosssynthesis-0922/render.cpp:253:29
	add	r7, r7, #1
.Ltmp383:
	@DEBUG_VALUE: n <- %R7
	.loc	11 254 43               @ /root/Bela/projects/crosssynthesis-0922/render.cpp:254:43
	vsub.f32	d16, d9, d0
.Ltmp384:
	.loc	11 253 2 discriminator 1 @ /root/Bela/projects/crosssynthesis-0922/render.cpp:253:2
	cmp	r7, r4
.Ltmp385:
	.loc	11 254 35               @ /root/Bela/projects/crosssynthesis-0922/render.cpp:254:35
	vmul.f32	d0, d16, d12
	.loc	11 254 28 is_stmt 0     @ /root/Bela/projects/crosssynthesis-0922/render.cpp:254:28
	vstr	s0, [r5]
.Ltmp386:
	.loc	11 253 18 is_stmt 1 discriminator 1 @ /root/Bela/projects/crosssynthesis-0922/render.cpp:253:18
	add	r5, r5, #4
.Ltmp387:
	.loc	11 255 29               @ /root/Bela/projects/crosssynthesis-0922/render.cpp:255:29
	vstr	s0, [r6]
.Ltmp388:
	.loc	11 253 18 discriminator 1 @ /root/Bela/projects/crosssynthesis-0922/render.cpp:253:18
	add	r6, r6, #4
	blo	.LBB8_8
.Ltmp389:
.LBB8_9:                                @ %._crit_edge
	.loc	11 257 1                @ /root/Bela/projects/crosssynthesis-0922/render.cpp:257:1
	sub	sp, r11, #88
	vpop	{d8, d9, d10, d11, d12, d13, d14, d15}
	pop	{r4, r5, r6, r7, r8, r10, r11, pc}
.Ltmp390:
	.p2align	4
@ BB#10:
.LCPI8_0:
	.long	0                       @ 0x0
	.long	1                       @ 0x1
	.long	2                       @ 0x2
	.long	3                       @ 0x3
.LCPI8_1:
	.long	1413754136              @ double 6.2831853071795862
	.long	1075388923
.Lfunc_end8:
	.size	_Z18recalculate_windowj, .Lfunc_end8-_Z18recalculate_windowj
	.cfi_endproc
	.fnend

	.globl	render
	.p2align	4
	.type	render,%function
render:                                 @ @render
.Lfunc_begin9:
	.loc	11 260 0                @ /root/Bela/projects/crosssynthesis-0922/render.cpp:260:0
	.fnstart
	.cfi_startproc
@ BB#0:
	.save	{r4, r5, r6, r7, r8, r9, r10, r11, lr}
	push	{r4, r5, r6, r7, r8, r9, r10, r11, lr}
.Ltmp391:
	.cfi_def_cfa_offset 36
.Ltmp392:
	.cfi_offset lr, -4
.Ltmp393:
	.cfi_offset r11, -8
.Ltmp394:
	.cfi_offset r10, -12
.Ltmp395:
	.cfi_offset r9, -16
.Ltmp396:
	.cfi_offset r8, -20
.Ltmp397:
	.cfi_offset r7, -24
.Ltmp398:
	.cfi_offset r6, -28
.Ltmp399:
	.cfi_offset r5, -32
.Ltmp400:
	.cfi_offset r4, -36
	.setfp	r11, sp, #28
	add	r11, sp, #28
.Ltmp401:
	.cfi_def_cfa r11, 8
	.pad	#4
	sub	sp, sp, #4
	.vsave	{d8, d9, d10, d11, d12, d13, d14, d15}
	vpush	{d8, d9, d10, d11, d12, d13, d14, d15}
.Ltmp402:
	.cfi_offset d15, -48
.Ltmp403:
	.cfi_offset d14, -56
.Ltmp404:
	.cfi_offset d13, -64
.Ltmp405:
	.cfi_offset d12, -72
.Ltmp406:
	.cfi_offset d11, -80
.Ltmp407:
	.cfi_offset d10, -88
.Ltmp408:
	.cfi_offset d9, -96
.Ltmp409:
	.cfi_offset d8, -104
	.pad	#16
	sub	sp, sp, #16
	@DEBUG_VALUE: render:context <- %R0
	@DEBUG_VALUE: render:userData <- %R1
.Ltmp410:
	.loc	11 262 20 prologue_end  @ /root/Bela/projects/crosssynthesis-0922/render.cpp:262:20
	movw	r7, :lower16:.L_MergedGlobals
	mov	r4, r0
.Ltmp411:
	@DEBUG_VALUE: render:context <- %R4
	movt	r7, :upper16:.L_MergedGlobals
	.loc	11 262 53 is_stmt 0     @ /root/Bela/projects/crosssynthesis-0922/render.cpp:262:53
	vldr	s0, [r7, #32]
	.loc	11 262 76               @ /root/Bela/projects/crosssynthesis-0922/render.cpp:262:76
	vldr	s2, [r7, #36]
	.loc	11 262 53               @ /root/Bela/projects/crosssynthesis-0922/render.cpp:262:53
	vcvt.s32.f32	d16, d0
	.loc	11 262 20               @ /root/Bela/projects/crosssynthesis-0922/render.cpp:262:20
	vldr	s0, [r7, #40]
	.loc	11 262 76               @ /root/Bela/projects/crosssynthesis-0922/render.cpp:262:76
	vcvt.s32.f32	d17, d1
.Ltmp412:
	.loc	11 263 16 is_stmt 1     @ /root/Bela/projects/crosssynthesis-0922/render.cpp:263:16
	ldr	r0, [r7]
.Ltmp413:
	.loc	11 262 49               @ /root/Bela/projects/crosssynthesis-0922/render.cpp:262:49
	vcvt.f32.s32	d16, d16
.Ltmp414:
	@DEBUG_VALUE: map:in_max <- 1.000000e+00
	@DEBUG_VALUE: map:in_min <- 0.000000e+00
	.loc	11 262 72 is_stmt 0     @ /root/Bela/projects/crosssynthesis-0922/render.cpp:262:72
	vcvt.f32.s32	d17, d17
.Ltmp415:
	.file	60 "./include" "Utilities.h"
	.loc	60 73 33 is_stmt 1      @ ./include/Utilities.h:73:33
	vsub.f32	d17, d17, d16
	.loc	60 73 44 is_stmt 0      @ ./include/Utilities.h:73:44
	vmul.f32	d17, d17, d0
	.loc	60 73 64                @ ./include/Utilities.h:73:64
	vadd.f32	d16, d17, d16
.Ltmp416:
	.loc	11 262 16 is_stmt 1     @ /root/Bela/projects/crosssynthesis-0922/render.cpp:262:16
	vcvt.s32.f32	d0, d16
	vmov	r2, s0
.Ltmp417:
	@DEBUG_VALUE: render:hopSize <- %R2
	.loc	11 263 5                @ /root/Bela/projects/crosssynthesis-0922/render.cpp:263:5
	cmp	r2, r0
	beq	.LBB9_11
.Ltmp418:
@ BB#1:
	@DEBUG_VALUE: render:hopSize <- %R2
	@DEBUG_VALUE: render:context <- %R4
	@DEBUG_VALUE: render:userData <- %R1
	.loc	9 656 40                @ /usr/bin/../lib/gcc/arm-linux-gnueabihf/6.3.0/../../../../include/c++/6.3.0/bits/stl_vector.h:656:40
	ldr	r0, [r7, #88]
.Ltmp419:
	.loc	11 264 26               @ /root/Bela/projects/crosssynthesis-0922/render.cpp:264:26
	lsl	r9, r2, #2
.Ltmp420:
	@DEBUG_VALUE: newLength <- %R9
	.loc	9 656 66                @ /usr/bin/../lib/gcc/arm-linux-gnueabihf/6.3.0/../../../../include/c++/6.3.0/bits/stl_vector.h:656:66
	ldr	r8, [r7, #84]
.Ltmp421:
	.loc	11 265 6                @ /root/Bela/projects/crosssynthesis-0922/render.cpp:265:6
	cmp	r9, #2048
.Ltmp422:
	.loc	9 656 66                @ /usr/bin/../lib/gcc/arm-linux-gnueabihf/6.3.0/../../../../include/c++/6.3.0/bits/stl_vector.h:656:66
	ldr	r6, [r7, #96]
.Ltmp423:
	.loc	11 265 6                @ /root/Bela/projects/crosssynthesis-0922/render.cpp:265:6
	movwgt	r9, #2048
.Ltmp424:
	@DEBUG_VALUE: recalculate_window:length <- %R9
	.loc	9 656 50                @ /usr/bin/../lib/gcc/arm-linux-gnueabihf/6.3.0/../../../../include/c++/6.3.0/bits/stl_vector.h:656:50
	sub	r0, r0, r8
.Ltmp425:
	.loc	9 656 66 is_stmt 0      @ /usr/bin/../lib/gcc/arm-linux-gnueabihf/6.3.0/../../../../include/c++/6.3.0/bits/stl_vector.h:656:66
	ldr	r1, [r7, #100]
.Ltmp426:
	str	r2, [sp, #4]            @ 4-byte Spill
.Ltmp427:
	.loc	9 656 50                @ /usr/bin/../lib/gcc/arm-linux-gnueabihf/6.3.0/../../../../include/c++/6.3.0/bits/stl_vector.h:656:50
	asr	r2, r0, #2
.Ltmp428:
	@DEBUG_VALUE: recalculate_window:length <- %R2
	.loc	11 247 5 is_stmt 1      @ /root/Bela/projects/crosssynthesis-0922/render.cpp:247:5
	cmp	r2, r9
	asrlo	r9, r0, #2
.Ltmp429:
	.loc	9 656 50                @ /usr/bin/../lib/gcc/arm-linux-gnueabihf/6.3.0/../../../../include/c++/6.3.0/bits/stl_vector.h:656:50
	sub	r0, r1, r6
.Ltmp430:
	.loc	11 250 5                @ /root/Bela/projects/crosssynthesis-0922/render.cpp:250:5
	cmp	r9, r0, asr #2
	asrhi	r9, r0, #2
.Ltmp431:
	.loc	11 253 2 discriminator 1 @ /root/Bela/projects/crosssynthesis-0922/render.cpp:253:2
	cmp	r9, #0
	beq	.LBB9_10
.Ltmp432:
@ BB#2:                                 @ %.lr.ph.i
	@DEBUG_VALUE: recalculate_window:length <- %R2
	@DEBUG_VALUE: render:context <- %R4
	.loc	11 254 100              @ /root/Bela/projects/crosssynthesis-0922/render.cpp:254:100
	sub	r0, r9, #1
	mov	r10, #0
.Ltmp433:
	.loc	11 253 2 discriminator 1 @ /root/Bela/projects/crosssynthesis-0922/render.cpp:253:2
	cmp	r9, #4
.Ltmp434:
	.loc	11 254 92               @ /root/Bela/projects/crosssynthesis-0922/render.cpp:254:92
	vmov	s0, r0
	vcvt.f32.u32	d0, d0
	.loc	11 254 85 is_stmt 0     @ /root/Bela/projects/crosssynthesis-0922/render.cpp:254:85
	vcvt.f64.f32	d10, s0
	blo	.LBB9_8
.Ltmp435:
@ BB#3:                                 @ %min.iters.checked
	@DEBUG_VALUE: recalculate_window:length <- %R2
	@DEBUG_VALUE: render:context <- %R4
	.loc	11 253 2 is_stmt 1 discriminator 1 @ /root/Bela/projects/crosssynthesis-0922/render.cpp:253:2
	mov	r1, r9
	bfc	r1, #0, #2
	cmp	r1, #0
	beq	.LBB9_8
.Ltmp436:
@ BB#4:                                 @ %vector.memcheck
	@DEBUG_VALUE: recalculate_window:length <- %R2
	@DEBUG_VALUE: render:context <- %R4
	add	r0, r6, r9, lsl #2
	cmp	r8, r0
	addlo	r0, r8, r9, lsl #2
	cmplo	r6, r0
	blo	.LBB9_8
.Ltmp437:
@ BB#5:                                 @ %vector.ph
	@DEBUG_VALUE: recalculate_window:length <- %R2
	@DEBUG_VALUE: render:context <- %R4
	vmov.f64	d11, d10
	adr	r0, .LCPI9_0
	mov	r10, r1
.Ltmp438:
	.loc	11 268 3                @ /root/Bela/projects/crosssynthesis-0922/render.cpp:268:3
	mov	r5, r1
	vld1.64	{d12, d13}, [r0:128]
.Ltmp439:
.LBB9_6:                                @ %vector.body
                                        @ =>This Inner Loop Header: Depth=1
	.loc	11 254 81               @ /root/Bela/projects/crosssynthesis-0922/render.cpp:254:81
	vcvt.f64.s32	d16, s27
	.loc	11 254 79 is_stmt 0     @ /root/Bela/projects/crosssynthesis-0922/render.cpp:254:79
	vldr	d20, .LCPI9_1
	.loc	11 254 81               @ /root/Bela/projects/crosssynthesis-0922/render.cpp:254:81
	vcvt.f64.s32	d17, s26
	vcvt.f64.s32	d18, s25
	vcvt.f64.s32	d19, s24
	.loc	11 254 79               @ /root/Bela/projects/crosssynthesis-0922/render.cpp:254:79
	vmul.f64	d16, d16, d20
	vmul.f64	d17, d17, d20
	vmul.f64	d19, d19, d20
	.loc	11 254 83               @ /root/Bela/projects/crosssynthesis-0922/render.cpp:254:83
	vdiv.f64	d16, d16, d11
	vdiv.f64	d15, d17, d10
	vdiv.f64	d17, d19, d10
	.loc	11 254 79               @ /root/Bela/projects/crosssynthesis-0922/render.cpp:254:79
	vmul.f64	d18, d18, d20
	.loc	11 254 50               @ /root/Bela/projects/crosssynthesis-0922/render.cpp:254:50
	vcvt.f32.f64	s0, d16
	.loc	11 254 83               @ /root/Bela/projects/crosssynthesis-0922/render.cpp:254:83
	vdiv.f64	d14, d18, d11
	.loc	11 254 50               @ /root/Bela/projects/crosssynthesis-0922/render.cpp:254:50
	vstr	d17, [sp, #8]           @ 8-byte Spill
	.loc	11 254 45               @ /root/Bela/projects/crosssynthesis-0922/render.cpp:254:45
	bl	cosf
	vmov.f32	s19, s0
	.loc	11 254 50               @ /root/Bela/projects/crosssynthesis-0922/render.cpp:254:50
	vcvt.f32.f64	s0, d15
	.loc	11 254 45               @ /root/Bela/projects/crosssynthesis-0922/render.cpp:254:45
	bl	cosf
	vmov.f32	s18, s0
	.loc	11 254 50               @ /root/Bela/projects/crosssynthesis-0922/render.cpp:254:50
	vcvt.f32.f64	s0, d14
	.loc	11 254 45               @ /root/Bela/projects/crosssynthesis-0922/render.cpp:254:45
	bl	cosf
	.loc	11 254 50               @ /root/Bela/projects/crosssynthesis-0922/render.cpp:254:50
	vldr	d16, [sp, #8]           @ 8-byte Reload
	.loc	11 254 45               @ /root/Bela/projects/crosssynthesis-0922/render.cpp:254:45
	vmov.f32	s17, s0
	.loc	11 254 50               @ /root/Bela/projects/crosssynthesis-0922/render.cpp:254:50
	vcvt.f32.f64	s0, d16
	.loc	11 254 45               @ /root/Bela/projects/crosssynthesis-0922/render.cpp:254:45
	bl	cosf
.Ltmp440:
	.loc	9 781 41 is_stmt 1      @ /usr/bin/../lib/gcc/arm-linux-gnueabihf/6.3.0/../../../../include/c++/6.3.0/bits/stl_vector.h:781:41
	vmov.32	r0, d12[0]
.Ltmp441:
	.loc	11 254 45               @ /root/Bela/projects/crosssynthesis-0922/render.cpp:254:45
	vmov.f32	s16, s0
	.loc	11 254 43 is_stmt 0     @ /root/Bela/projects/crosssynthesis-0922/render.cpp:254:43
	vmov.f32	q8, #1.000000e+00
.Ltmp442:
	.loc	11 253 2 is_stmt 1 discriminator 1 @ /root/Bela/projects/crosssynthesis-0922/render.cpp:253:2
	subs	r5, r5, #4
.Ltmp443:
	.loc	11 254 35               @ /root/Bela/projects/crosssynthesis-0922/render.cpp:254:35
	vmov.i32	q9, #0x3f000000
	.loc	11 254 43 is_stmt 0     @ /root/Bela/projects/crosssynthesis-0922/render.cpp:254:43
	vsub.f32	q8, q8, q4
	.loc	11 254 35               @ /root/Bela/projects/crosssynthesis-0922/render.cpp:254:35
	vmul.f32	q8, q8, q9
.Ltmp444:
	.loc	11 253 2 is_stmt 1 discriminator 1 @ /root/Bela/projects/crosssynthesis-0922/render.cpp:253:2
	vmov.i32	q9, #0x4
	vadd.i32	q6, q6, q9
.Ltmp445:
	.loc	9 781 41                @ /usr/bin/../lib/gcc/arm-linux-gnueabihf/6.3.0/../../../../include/c++/6.3.0/bits/stl_vector.h:781:41
	add	r1, r8, r0, lsl #2
.Ltmp446:
	.loc	9 781 41 is_stmt 0      @ /usr/bin/../lib/gcc/arm-linux-gnueabihf/6.3.0/../../../../include/c++/6.3.0/bits/stl_vector.h:781:41
	add	r0, r6, r0, lsl #2
.Ltmp447:
	.loc	11 254 28 is_stmt 1     @ /root/Bela/projects/crosssynthesis-0922/render.cpp:254:28
	vst1.32	{d16, d17}, [r1]
	.loc	11 255 29               @ /root/Bela/projects/crosssynthesis-0922/render.cpp:255:29
	vst1.32	{d16, d17}, [r0]
.Ltmp448:
	.loc	11 253 2 discriminator 1 @ /root/Bela/projects/crosssynthesis-0922/render.cpp:253:2
	bne	.LBB9_6
@ BB#7:                                 @ %middle.block
	cmp	r9, r10
	beq	.LBB9_10
.LBB9_8:                                @ %scalar.ph.preheader
.Ltmp449:
	.loc	11 254 43               @ /root/Bela/projects/crosssynthesis-0922/render.cpp:254:43
	vmov.f32	d9, #1.000000e+00
	.loc	11 254 81 is_stmt 0     @ /root/Bela/projects/crosssynthesis-0922/render.cpp:254:81
	add	r5, r8, r10, lsl #2
	.loc	11 254 35               @ /root/Bela/projects/crosssynthesis-0922/render.cpp:254:35
	vmov.f32	d12, #5.000000e-01
	.loc	11 254 81               @ /root/Bela/projects/crosssynthesis-0922/render.cpp:254:81
	add	r6, r6, r10, lsl #2
	.loc	11 254 79               @ /root/Bela/projects/crosssynthesis-0922/render.cpp:254:79
	vldr	d8, .LCPI9_1
.LBB9_9:                                @ %scalar.ph
                                        @ =>This Inner Loop Header: Depth=1
.Ltmp450:
	@DEBUG_VALUE: operator[]:__n <- %R10
	.loc	11 254 81               @ /root/Bela/projects/crosssynthesis-0922/render.cpp:254:81
	vmov	s0, r10
	vcvt.f64.s32	d16, s0
	.loc	11 254 79               @ /root/Bela/projects/crosssynthesis-0922/render.cpp:254:79
	vmul.f64	d16, d16, d8
	.loc	11 254 83               @ /root/Bela/projects/crosssynthesis-0922/render.cpp:254:83
	vdiv.f64	d16, d16, d10
	.loc	11 254 50               @ /root/Bela/projects/crosssynthesis-0922/render.cpp:254:50
	vcvt.f32.f64	s0, d16
	.loc	11 254 45               @ /root/Bela/projects/crosssynthesis-0922/render.cpp:254:45
	bl	cosf
                                        @ kill: %S0<def> %S0<kill> %D0<def>
.Ltmp451:
	.loc	11 253 29 is_stmt 1 discriminator 3 @ /root/Bela/projects/crosssynthesis-0922/render.cpp:253:29
	add	r10, r10, #1
.Ltmp452:
	@DEBUG_VALUE: n <- %R10
	.loc	11 254 43               @ /root/Bela/projects/crosssynthesis-0922/render.cpp:254:43
	vsub.f32	d16, d9, d0
.Ltmp453:
	.loc	11 253 2 discriminator 1 @ /root/Bela/projects/crosssynthesis-0922/render.cpp:253:2
	cmp	r10, r9
.Ltmp454:
	.loc	11 254 35               @ /root/Bela/projects/crosssynthesis-0922/render.cpp:254:35
	vmul.f32	d0, d16, d12
	.loc	11 254 28 is_stmt 0     @ /root/Bela/projects/crosssynthesis-0922/render.cpp:254:28
	vstr	s0, [r5]
.Ltmp455:
	.loc	11 253 18 is_stmt 1 discriminator 1 @ /root/Bela/projects/crosssynthesis-0922/render.cpp:253:18
	add	r5, r5, #4
.Ltmp456:
	.loc	11 255 29               @ /root/Bela/projects/crosssynthesis-0922/render.cpp:255:29
	vstr	s0, [r6]
.Ltmp457:
	.loc	11 253 18 discriminator 1 @ /root/Bela/projects/crosssynthesis-0922/render.cpp:253:18
	add	r6, r6, #4
	blo	.LBB9_9
.Ltmp458:
.LBB9_10:                               @ %_Z18recalculate_windowj.exit
	.loc	11 270 12               @ /root/Bela/projects/crosssynthesis-0922/render.cpp:270:12
	ldr	r0, [sp, #4]            @ 4-byte Reload
	str	r0, [r7]
.Ltmp459:
.LBB9_11:                               @ %.preheader38
	.loc	11 273 39 discriminator 1 @ /root/Bela/projects/crosssynthesis-0922/render.cpp:273:39
	ldr	r0, [r4, #20]
	.loc	11 273 2 is_stmt 0 discriminator 1 @ /root/Bela/projects/crosssynthesis-0922/render.cpp:273:2
	cmp	r0, #0
	beq	.LBB9_24
@ BB#12:                                @ %.lr.ph41
.Ltmp460:
	.loc	11 275 22 is_stmt 1     @ /root/Bela/projects/crosssynthesis-0922/render.cpp:275:22
	vmov.f32	d9, #2.000000e+01
	mov	r10, #0
	.loc	11 299 26               @ /root/Bela/projects/crosssynthesis-0922/render.cpp:299:26
	vmov.i32	d10, #0x3a000000
.Ltmp461:
	.loc	11 285 28               @ /root/Bela/projects/crosssynthesis-0922/render.cpp:285:28
	movw	r9, #16382
	mov	r5, #0
	mov	r8, #0
.Ltmp462:
.LBB9_13:                               @ =>This Loop Header: Depth=1
                                        @     Child Loop BB9_19 Depth 2
                                        @     Child Loop BB9_22 Depth 2
	.loc	11 276 34 discriminator 1 @ /root/Bela/projects/crosssynthesis-0922/render.cpp:276:34
	movw	r0, :lower16:gPlayerMag
	.loc	11 275 22               @ /root/Bela/projects/crosssynthesis-0922/render.cpp:275:22
	vldr	s22, [r7, #28]
	.loc	11 276 34 discriminator 1 @ /root/Bela/projects/crosssynthesis-0922/render.cpp:276:34
	movt	r0, :upper16:gPlayerMag
	bl	_ZN14MonoFilePlayer7processEv
	.loc	11 277 34 discriminator 1 @ /root/Bela/projects/crosssynthesis-0922/render.cpp:277:34
	movw	r0, :lower16:gPlayerPhi
	.loc	11 276 34 discriminator 1 @ /root/Bela/projects/crosssynthesis-0922/render.cpp:276:34
	vorr	d8, d0, d0
	.loc	11 277 34 discriminator 1 @ /root/Bela/projects/crosssynthesis-0922/render.cpp:277:34
	movt	r0, :upper16:gPlayerPhi
	bl	_ZN14MonoFilePlayer7processEv
	.loc	11 275 22               @ /root/Bela/projects/crosssynthesis-0922/render.cpp:275:22
	vmul.f32	d16, d11, d9
.Ltmp463:
	@DEBUG_VALUE: gAmp <- undef
	.loc	11 283 19               @ /root/Bela/projects/crosssynthesis-0922/render.cpp:283:19
	ldr	r1, [r7, #4]
.Ltmp464:
	@DEBUG_VALUE: operator[]:__n <- %R1
	@DEBUG_VALUE: operator[]:__n <- %R1
	.loc	9 781 32                @ /usr/bin/../lib/gcc/arm-linux-gnueabihf/6.3.0/../../../../include/c++/6.3.0/bits/stl_vector.h:781:32
	ldr	r0, [r7, #48]
.Ltmp465:
	.loc	11 277 34 discriminator 1 @ /root/Bela/projects/crosssynthesis-0922/render.cpp:277:34
                                        @ kill: %S0<def> %S0<kill> %D0<def>
.Ltmp466:
	.loc	11 310 32               @ /root/Bela/projects/crosssynthesis-0922/render.cpp:310:32
	cmp	r1, r9
.Ltmp467:
	.loc	9 781 41                @ /usr/bin/../lib/gcc/arm-linux-gnueabihf/6.3.0/../../../../include/c++/6.3.0/bits/stl_vector.h:781:41
	add	r0, r0, r1, lsl #2
.Ltmp468:
	.loc	11 276 44               @ /root/Bela/projects/crosssynthesis-0922/render.cpp:276:44
	vmul.f32	d1, d8, d16
.Ltmp469:
	@DEBUG_VALUE: inMag <- %S2
	.loc	11 277 44               @ /root/Bela/projects/crosssynthesis-0922/render.cpp:277:44
	vmul.f32	d0, d0, d16
.Ltmp470:
	@DEBUG_VALUE: inPhi <- %S0
	.loc	11 283 40               @ /root/Bela/projects/crosssynthesis-0922/render.cpp:283:40
	vstr	s2, [r0]
.Ltmp471:
	.loc	9 781 32                @ /usr/bin/../lib/gcc/arm-linux-gnueabihf/6.3.0/../../../../include/c++/6.3.0/bits/stl_vector.h:781:32
	ldr	r0, [r7, #60]
	.loc	9 781 41 is_stmt 0      @ /usr/bin/../lib/gcc/arm-linux-gnueabihf/6.3.0/../../../../include/c++/6.3.0/bits/stl_vector.h:781:41
	add	r0, r0, r1, lsl #2
.Ltmp472:
	.loc	11 284 40 is_stmt 1     @ /root/Bela/projects/crosssynthesis-0922/render.cpp:284:40
	vstr	s0, [r0]
.Ltmp473:
	.loc	11 285 6                @ /root/Bela/projects/crosssynthesis-0922/render.cpp:285:6
	add	r0, r1, #1
.Ltmp474:
	.loc	11 310 32               @ /root/Bela/projects/crosssynthesis-0922/render.cpp:310:32
	movwgt	r0, #0
.Ltmp475:
	.loc	11 288 24               @ /root/Bela/projects/crosssynthesis-0922/render.cpp:288:24
	str	r0, [r7, #4]
.Ltmp476:
	.loc	11 293 29               @ /root/Bela/projects/crosssynthesis-0922/render.cpp:293:29
	ldr	r1, [r7, #16]
.Ltmp477:
	@DEBUG_VALUE: operator[]:__n <- %R1
	@DEBUG_VALUE: operator[]:__n <- %R1
	.loc	9 781 32                @ /usr/bin/../lib/gcc/arm-linux-gnueabihf/6.3.0/../../../../include/c++/6.3.0/bits/stl_vector.h:781:32
	ldr	r2, [r7, #72]
.Ltmp478:
	.loc	11 303 6                @ /root/Bela/projects/crosssynthesis-0922/render.cpp:303:6
	cmp	r1, r9
.Ltmp479:
	.loc	9 781 41                @ /usr/bin/../lib/gcc/arm-linux-gnueabihf/6.3.0/../../../../include/c++/6.3.0/bits/stl_vector.h:781:41
	add	r3, r2, r1, lsl #2
.Ltmp480:
	.loc	11 293 15               @ /root/Bela/projects/crosssynthesis-0922/render.cpp:293:15
	vldr	s0, [r3]
.Ltmp481:
	@DEBUG_VALUE: out <- %S0
	.loc	11 296 43               @ /root/Bela/projects/crosssynthesis-0922/render.cpp:296:43
	str	r10, [r2, r1, lsl #2]
	.loc	11 302 27               @ /root/Bela/projects/crosssynthesis-0922/render.cpp:302:27
	add	r2, r1, #1
	.loc	11 299 26               @ /root/Bela/projects/crosssynthesis-0922/render.cpp:299:26
	vmul.f32	d8, d0, d10
	.loc	11 299 17 is_stmt 0     @ /root/Bela/projects/crosssynthesis-0922/render.cpp:299:17
	ldr	r1, [r7]
.Ltmp482:
	.loc	11 303 6 is_stmt 1      @ /root/Bela/projects/crosssynthesis-0922/render.cpp:303:6
	movwgt	r2, #0
.Ltmp483:
	.loc	11 304 29               @ /root/Bela/projects/crosssynthesis-0922/render.cpp:304:29
	str	r2, [r7, #16]
.Ltmp484:
	.loc	11 307 6                @ /root/Bela/projects/crosssynthesis-0922/render.cpp:307:6
	ldr	r2, [r7, #8]
.Ltmp485:
	.loc	11 299 17               @ /root/Bela/projects/crosssynthesis-0922/render.cpp:299:17
	vmov	s0, r1
.Ltmp486:
	vcvt.f32.s32	d11, d0
.Ltmp487:
	.loc	11 307 6                @ /root/Bela/projects/crosssynthesis-0922/render.cpp:307:6
	add	r2, r2, #1
	str	r2, [r7, #8]
.Ltmp488:
	.loc	11 307 6 is_stmt 0      @ /root/Bela/projects/crosssynthesis-0922/render.cpp:307:6
	cmp	r2, r1
	blt	.LBB9_15
.Ltmp489:
@ BB#14:                                @   in Loop: Header=BB9_13 Depth=1
	@DEBUG_VALUE: inMag <- %S2
	.loc	11 308 16 is_stmt 1     @ /root/Bela/projects/crosssynthesis-0922/render.cpp:308:16
	str	r10, [r7, #8]
	.loc	11 310 30               @ /root/Bela/projects/crosssynthesis-0922/render.cpp:310:30
	str	r0, [r7, #24]
	.loc	11 311 31               @ /root/Bela/projects/crosssynthesis-0922/render.cpp:311:31
	ldr	r0, [r7, #20]
	.loc	11 311 4 is_stmt 0      @ /root/Bela/projects/crosssynthesis-0922/render.cpp:311:4
	bl	Bela_scheduleAuxiliaryTask
.Ltmp490:
.LBB9_15:                               @ %.preheader
                                        @   in Loop: Header=BB9_13 Depth=1
	.loc	11 315 52 is_stmt 1 discriminator 1 @ /root/Bela/projects/crosssynthesis-0922/render.cpp:315:52
	ldr	r0, [r4, #28]
	.loc	11 315 3 is_stmt 0 discriminator 1 @ /root/Bela/projects/crosssynthesis-0922/render.cpp:315:3
	cmp	r0, #0
	beq	.LBB9_23
.Ltmp491:
@ BB#16:                                @ %.lr.ph
                                        @   in Loop: Header=BB9_13 Depth=1
	.loc	11 299 7 is_stmt 1      @ /root/Bela/projects/crosssynthesis-0922/render.cpp:299:7
	vmul.f32	d0, d8, d11
.Ltmp492:
	@DEBUG_VALUE: out <- %S0
	ldr	r1, [r4, #4]
	mov	r2, #0
.Ltmp493:
	.loc	11 315 3 discriminator 1 @ /root/Bela/projects/crosssynthesis-0922/render.cpp:315:3
	cmp	r0, #3
	bls	.LBB9_21
.Ltmp494:
@ BB#17:                                @ %min.iters.checked52
                                        @   in Loop: Header=BB9_13 Depth=1
	@DEBUG_VALUE: out <- %S0
	mov	r6, r0
	bfc	r6, #0, #2
	cmp	r6, #0
	beq	.LBB9_21
.Ltmp495:
@ BB#18:                                @ %vector.ph56
                                        @   in Loop: Header=BB9_13 Depth=1
	@DEBUG_VALUE: out <- %S0
	mla	r2, r0, r5, r1
	vdup.32	q8, d0[0]
	.loc	11 315 77 is_stmt 0 discriminator 3 @ /root/Bela/projects/crosssynthesis-0922/render.cpp:315:77
	mov	r3, r6
.Ltmp496:
.LBB9_19:                               @ %vector.body48
                                        @   Parent Loop BB9_13 Depth=1
                                        @ =>  This Inner Loop Header: Depth=2
	.loc	14 1466 65 is_stmt 1    @ ./include/Bela.h:1466:65
	vst1.32	{d16, d17}, [r2]!
.Ltmp497:
	.loc	11 315 3 discriminator 1 @ /root/Bela/projects/crosssynthesis-0922/render.cpp:315:3
	subs	r3, r3, #4
	bne	.LBB9_19
@ BB#20:                                @ %middle.block49
                                        @   in Loop: Header=BB9_13 Depth=1
	mov	r2, r6
	cmp	r0, r6
	beq	.LBB9_23
.LBB9_21:                               @ %scalar.ph50.preheader
                                        @   in Loop: Header=BB9_13 Depth=1
.Ltmp498:
	.loc	14 1466 54              @ ./include/Bela.h:1466:54
	mla	r3, r0, r8, r2
	add	r1, r1, r3, lsl #2
.Ltmp499:
.LBB9_22:                               @ %scalar.ph50
                                        @   Parent Loop BB9_13 Depth=1
                                        @ =>  This Inner Loop Header: Depth=2
	.loc	11 315 77 discriminator 3 @ /root/Bela/projects/crosssynthesis-0922/render.cpp:315:77
	add	r2, r2, #1
.Ltmp500:
	@DEBUG_VALUE: channel <- %R2
	.loc	14 1466 65              @ ./include/Bela.h:1466:65
	vstmia	r1!, {s0}
.Ltmp501:
	.loc	11 315 3 discriminator 1 @ /root/Bela/projects/crosssynthesis-0922/render.cpp:315:3
	cmp	r2, r0
	blo	.LBB9_22
.Ltmp502:
.LBB9_23:                               @ %._crit_edge
                                        @   in Loop: Header=BB9_13 Depth=1
	.loc	11 273 2 discriminator 1 @ /root/Bela/projects/crosssynthesis-0922/render.cpp:273:2
	add	r5, r5, #4
	.loc	11 273 53 is_stmt 0 discriminator 3 @ /root/Bela/projects/crosssynthesis-0922/render.cpp:273:53
	add	r8, r8, #1
.Ltmp503:
	@DEBUG_VALUE: n <- %R8
	.loc	11 273 39 discriminator 1 @ /root/Bela/projects/crosssynthesis-0922/render.cpp:273:39
	ldr	r0, [r4, #20]
	.loc	11 273 2 discriminator 1 @ /root/Bela/projects/crosssynthesis-0922/render.cpp:273:2
	cmp	r8, r0
	blo	.LBB9_13
.Ltmp504:
.LBB9_24:                               @ %._crit_edge42
	.loc	11 322 1 is_stmt 1      @ /root/Bela/projects/crosssynthesis-0922/render.cpp:322:1
	sub	sp, r11, #96
	vpop	{d8, d9, d10, d11, d12, d13, d14, d15}
	add	sp, sp, #4
	pop	{r4, r5, r6, r7, r8, r9, r10, r11, pc}
.Ltmp505:
	.p2align	4
@ BB#25:
.LCPI9_0:
	.long	0                       @ 0x0
	.long	1                       @ 0x1
	.long	2                       @ 0x2
	.long	3                       @ 0x3
.LCPI9_1:
	.long	1413754136              @ double 6.2831853071795862
	.long	1075388923
.Lfunc_end9:
	.size	render, .Lfunc_end9-render
	.cfi_endproc
	.fnend

	.globl	cleanup
	.p2align	2
	.type	cleanup,%function
cleanup:                                @ @cleanup
.Lfunc_begin10:
	.loc	11 325 0                @ /root/Bela/projects/crosssynthesis-0922/render.cpp:325:0
	.fnstart
	.cfi_startproc
@ BB#0:
	@DEBUG_VALUE: cleanup:context <- %R0
	@DEBUG_VALUE: cleanup:userData <- %R1
	.loc	11 327 1 prologue_end   @ /root/Bela/projects/crosssynthesis-0922/render.cpp:327:1
	bx	lr
.Ltmp506:
.Lfunc_end10:
	.size	cleanup, .Lfunc_end10-cleanup
	.cfi_endproc
	.fnend

	.section	.text.__clang_call_terminate,"axG",%progbits,__clang_call_terminate,comdat
	.hidden	__clang_call_terminate
	.weak	__clang_call_terminate
	.p2align	2
	.type	__clang_call_terminate,%function
__clang_call_terminate:                 @ @__clang_call_terminate
.Lfunc_begin11:
	.fnstart
	.cfi_startproc
@ BB#0:
	.save	{r11, lr}
	push	{r11, lr}
.Ltmp507:
	.cfi_def_cfa_offset 8
.Ltmp508:
	.cfi_offset lr, -4
.Ltmp509:
	.cfi_offset r11, -8
	bl	__cxa_begin_catch
	mov	lr, pc
	b	_ZSt9terminatev
.Lfunc_end11:
	.size	__clang_call_terminate, .Lfunc_end11-__clang_call_terminate
	.cfi_endproc
	.cantunwind
	.fnend

	.section	.text._ZNSt6vectorIfSaIfEE17_M_default_appendEj,"axG",%progbits,_ZNSt6vectorIfSaIfEE17_M_default_appendEj,comdat
	.weak	_ZNSt6vectorIfSaIfEE17_M_default_appendEj
	.p2align	2
	.type	_ZNSt6vectorIfSaIfEE17_M_default_appendEj,%function
_ZNSt6vectorIfSaIfEE17_M_default_appendEj: @ @_ZNSt6vectorIfSaIfEE17_M_default_appendEj
.Lfunc_begin12:
	.file	61 "/usr/bin/../lib/gcc/arm-linux-gnueabihf/6.3.0/../../../../include/c++/6.3.0/bits" "vector.tcc"
	.loc	61 542 0                @ /usr/bin/../lib/gcc/arm-linux-gnueabihf/6.3.0/../../../../include/c++/6.3.0/bits/vector.tcc:542:0
	.fnstart
	.cfi_startproc
@ BB#0:
	.save	{r4, r5, r6, r7, r8, r10, r11, lr}
	push	{r4, r5, r6, r7, r8, r10, r11, lr}
.Ltmp510:
	.cfi_def_cfa_offset 32
.Ltmp511:
	.cfi_offset lr, -4
.Ltmp512:
	.cfi_offset r11, -8
.Ltmp513:
	.cfi_offset r10, -12
.Ltmp514:
	.cfi_offset r8, -16
.Ltmp515:
	.cfi_offset r7, -20
.Ltmp516:
	.cfi_offset r6, -24
.Ltmp517:
	.cfi_offset r5, -28
.Ltmp518:
	.cfi_offset r4, -32
	.setfp	r11, sp, #24
	add	r11, sp, #24
.Ltmp519:
	.cfi_def_cfa r11, 8
	@DEBUG_VALUE: _M_default_append:this <- %R0
	@DEBUG_VALUE: _M_default_append:__n <- %R1
	mov	r5, r1
.Ltmp520:
	@DEBUG_VALUE: _M_default_append:__n <- %R5
	mov	r4, r0
.Ltmp521:
	@DEBUG_VALUE: _M_default_append:this <- %R4
	.loc	61 543 11 prologue_end  @ /usr/bin/../lib/gcc/arm-linux-gnueabihf/6.3.0/../../../../include/c++/6.3.0/bits/vector.tcc:543:11
	cmp	r5, #0
	beq	.LBB12_11
.Ltmp522:
@ BB#1:
	@DEBUG_VALUE: _M_default_append:this <- %R4
	@DEBUG_VALUE: _M_default_append:__n <- %R5
	@DEBUG_VALUE: __fill_n_a<float *, unsigned int, float>:__first <- %R7
	@DEBUG_VALUE: fill_n<float *, unsigned int, float>:__first <- %R7
	@DEBUG_VALUE: __uninit_default_n<float *, unsigned int>:__first <- %R7
	@DEBUG_VALUE: __uninitialized_default_n<float *, unsigned int>:__first <- %R7
	@DEBUG_VALUE: __uninitialized_default_n_a<float *, unsigned int, float>:__first <- %R7
	.loc	61 546 20               @ /usr/bin/../lib/gcc/arm-linux-gnueabihf/6.3.0/../../../../include/c++/6.3.0/bits/vector.tcc:546:20
	ldr	r7, [r4, #4]
.Ltmp523:
	.loc	61 545 32               @ /usr/bin/../lib/gcc/arm-linux-gnueabihf/6.3.0/../../../../include/c++/6.3.0/bits/vector.tcc:545:32
	ldr	r0, [r4, #8]
	.loc	61 546 4                @ /usr/bin/../lib/gcc/arm-linux-gnueabihf/6.3.0/../../../../include/c++/6.3.0/bits/vector.tcc:546:4
	sub	r0, r0, r7
	asr	r0, r0, #2
.Ltmp524:
	.loc	61 545 8                @ /usr/bin/../lib/gcc/arm-linux-gnueabihf/6.3.0/../../../../include/c++/6.3.0/bits/vector.tcc:545:8
	cmp	r0, r5
	bhs	.LBB12_12
.Ltmp525:
@ BB#2:
	@DEBUG_VALUE: _M_default_append:this <- %R4
	@DEBUG_VALUE: _M_default_append:__n <- %R5
	@DEBUG_VALUE: size:this <- %R4
	.loc	9 656 66                @ /usr/bin/../lib/gcc/arm-linux-gnueabihf/6.3.0/../../../../include/c++/6.3.0/bits/stl_vector.h:656:66
	ldr	r1, [r4]
.Ltmp526:
	.loc	9 1422 17               @ /usr/bin/../lib/gcc/arm-linux-gnueabihf/6.3.0/../../../../include/c++/6.3.0/bits/stl_vector.h:1422:17
	mvn	r8, #-1073741824
.Ltmp527:
	.loc	9 656 50                @ /usr/bin/../lib/gcc/arm-linux-gnueabihf/6.3.0/../../../../include/c++/6.3.0/bits/stl_vector.h:656:50
	sub	r0, r7, r1
.Ltmp528:
	.loc	9 1422 17               @ /usr/bin/../lib/gcc/arm-linux-gnueabihf/6.3.0/../../../../include/c++/6.3.0/bits/stl_vector.h:1422:17
	sub	r2, r8, r0, asr #2
.Ltmp529:
	@DEBUG_VALUE: _M_check_len:__n <- %R5
	.loc	9 1422 6 is_stmt 0      @ /usr/bin/../lib/gcc/arm-linux-gnueabihf/6.3.0/../../../../include/c++/6.3.0/bits/stl_vector.h:1422:6
	cmp	r2, r5
	blo	.LBB12_13
.Ltmp530:
@ BB#3:                                 @ %_ZNKSt6vectorIfSaIfEE12_M_check_lenEjPKc.exit
	@DEBUG_VALUE: _M_check_len:__n <- %R5
	@DEBUG_VALUE: size:this <- %R4
	@DEBUG_VALUE: _M_default_append:this <- %R4
	@DEBUG_VALUE: _M_default_append:__n <- %R5
	.loc	9 656 50 is_stmt 1      @ /usr/bin/../lib/gcc/arm-linux-gnueabihf/6.3.0/../../../../include/c++/6.3.0/bits/stl_vector.h:656:50
	asr	r0, r0, #2
.Ltmp531:
	.loc	9 1425 35               @ /usr/bin/../lib/gcc/arm-linux-gnueabihf/6.3.0/../../../../include/c++/6.3.0/bits/stl_vector.h:1425:35
	cmp	r0, r5
	mov	r2, r0
	mov	r6, #0
	movlo	r2, r5
	add	r0, r2, r0
	.loc	9 1426 25               @ /usr/bin/../lib/gcc/arm-linux-gnueabihf/6.3.0/../../../../include/c++/6.3.0/bits/stl_vector.h:1426:25
	cmp	r6, r0, lsr #30
	mov	r3, r0
	mvnne	r3, #-1073741824
	cmp	r0, r2
	movhs	r8, r3
.Ltmp532:
	@DEBUG_VALUE: _M_allocate:__n <- %R8
	@DEBUG_VALUE: __len <- %R8
	@DEBUG_VALUE: allocate:__n <- %R8
	@DEBUG_VALUE: allocate:__n <- %R8
	.loc	9 170 9                 @ /usr/bin/../lib/gcc/arm-linux-gnueabihf/6.3.0/../../../../include/c++/6.3.0/bits/stl_vector.h:170:9
	cmp	r8, #0
.Ltmp533:
	@DEBUG_VALUE: _M_check_len:__len <- %R0
	beq	.LBB12_6
.Ltmp534:
@ BB#4:
	@DEBUG_VALUE: _M_check_len:__len <- %R0
	@DEBUG_VALUE: allocate:__n <- %R8
	@DEBUG_VALUE: allocate:__n <- %R8
	@DEBUG_VALUE: __len <- %R8
	@DEBUG_VALUE: _M_allocate:__n <- %R8
	@DEBUG_VALUE: _M_check_len:__n <- %R5
	@DEBUG_VALUE: size:this <- %R4
	@DEBUG_VALUE: _M_default_append:this <- %R4
	@DEBUG_VALUE: _M_default_append:__n <- %R5
	.loc	5 101 6                 @ /usr/bin/../lib/gcc/arm-linux-gnueabihf/6.3.0/../../../../include/c++/6.3.0/ext/new_allocator.h:101:6
	cmp	r8, #1073741824
	bhs	.LBB12_14
.Ltmp535:
@ BB#5:                                 @ %_ZNSt16allocator_traitsISaIfEE8allocateERS0_j.exit.i
	@DEBUG_VALUE: _M_check_len:__len <- %R0
	@DEBUG_VALUE: allocate:__n <- %R8
	@DEBUG_VALUE: allocate:__n <- %R8
	@DEBUG_VALUE: __len <- %R8
	@DEBUG_VALUE: _M_allocate:__n <- %R8
	@DEBUG_VALUE: _M_check_len:__n <- %R5
	@DEBUG_VALUE: size:this <- %R4
	@DEBUG_VALUE: _M_default_append:this <- %R4
	@DEBUG_VALUE: _M_default_append:__n <- %R5
	.loc	5 104 46                @ /usr/bin/../lib/gcc/arm-linux-gnueabihf/6.3.0/../../../../include/c++/6.3.0/ext/new_allocator.h:104:46
	lsl	r0, r8, #2
.Ltmp536:
	.loc	5 104 27 is_stmt 0      @ /usr/bin/../lib/gcc/arm-linux-gnueabihf/6.3.0/../../../../include/c++/6.3.0/ext/new_allocator.h:104:27
	bl	_Znwj
.Ltmp537:
	.loc	61 563 22 is_stmt 1     @ /usr/bin/../lib/gcc/arm-linux-gnueabihf/6.3.0/../../../../include/c++/6.3.0/bits/vector.tcc:563:22
	ldm	r4, {r1, r7}
.Ltmp538:
	@DEBUG_VALUE: size:this <- %R4
	.loc	5 104 27                @ /usr/bin/../lib/gcc/arm-linux-gnueabihf/6.3.0/../../../../include/c++/6.3.0/ext/new_allocator.h:104:27
	mov	r6, r0
.Ltmp539:
.LBB12_6:                               @ %_ZNSt12_Vector_baseIfSaIfEE11_M_allocateEj.exit
	@DEBUG_VALUE: allocate:__n <- %R8
	@DEBUG_VALUE: allocate:__n <- %R8
	@DEBUG_VALUE: __len <- %R8
	@DEBUG_VALUE: _M_allocate:__n <- %R8
	@DEBUG_VALUE: _M_check_len:__n <- %R5
	@DEBUG_VALUE: size:this <- %R4
	@DEBUG_VALUE: _M_default_append:this <- %R4
	@DEBUG_VALUE: _M_default_append:__n <- %R5
	@DEBUG_VALUE: __uninitialized_move_if_noexcept_a<float *, float *, std::allocator<float> >:__first <- %R1
	@DEBUG_VALUE: uninitialized_copy<std::move_iterator<float *>, float *>:__assignable <- 1
	@DEBUG_VALUE: __copy_move_a<true, float *, float *>:__simple <- 1
	.loc	57 366 34               @ /usr/bin/../lib/gcc/arm-linux-gnueabihf/6.3.0/../../../../include/c++/6.3.0/bits/stl_algobase.h:366:34
	sub	r2, r7, r1
	mov	r0, #0
	asr	r7, r2, #2
.Ltmp540:
	@DEBUG_VALUE: __copy_m<float>:_Num <- %R7
	.loc	57 367 8                @ /usr/bin/../lib/gcc/arm-linux-gnueabihf/6.3.0/../../../../include/c++/6.3.0/bits/stl_algobase.h:367:8
	cmp	r0, r2, asr #2
	beq	.LBB12_8
.Ltmp541:
@ BB#7:
	@DEBUG_VALUE: __copy_m<float>:_Num <- %R7
	@DEBUG_VALUE: __uninitialized_move_if_noexcept_a<float *, float *, std::allocator<float> >:__first <- %R1
	@DEBUG_VALUE: allocate:__n <- %R8
	@DEBUG_VALUE: allocate:__n <- %R8
	@DEBUG_VALUE: __len <- %R8
	@DEBUG_VALUE: _M_allocate:__n <- %R8
	@DEBUG_VALUE: _M_check_len:__n <- %R5
	@DEBUG_VALUE: size:this <- %R4
	@DEBUG_VALUE: _M_default_append:this <- %R4
	@DEBUG_VALUE: _M_default_append:__n <- %R5
	.loc	57 368 6                @ /usr/bin/../lib/gcc/arm-linux-gnueabihf/6.3.0/../../../../include/c++/6.3.0/bits/stl_algobase.h:368:6
	mov	r0, r6
	bl	memmove
.Ltmp542:
	@DEBUG_VALUE: __uninitialized_move_if_noexcept_a<float *, float *, std::allocator<float> >:__result <- %R6
.LBB12_8:
	@DEBUG_VALUE: __copy_m<float>:_Num <- %R7
	@DEBUG_VALUE: allocate:__n <- %R8
	@DEBUG_VALUE: allocate:__n <- %R8
	@DEBUG_VALUE: __len <- %R8
	@DEBUG_VALUE: _M_allocate:__n <- %R8
	@DEBUG_VALUE: _M_check_len:__n <- %R5
	@DEBUG_VALUE: size:this <- %R4
	@DEBUG_VALUE: _M_default_append:this <- %R4
	@DEBUG_VALUE: _M_default_append:__n <- %R5
	.loc	57 369 20               @ /usr/bin/../lib/gcc/arm-linux-gnueabihf/6.3.0/../../../../include/c++/6.3.0/bits/stl_algobase.h:369:20
	add	r7, r6, r7, lsl #2
.Ltmp543:
	@DEBUG_VALUE: __niter <- %R5
	@DEBUG_VALUE: __fill_n_a<float *, unsigned int, float>:__first <- %R7
	@DEBUG_VALUE: fill_n<float *, unsigned int, float>:__first <- %R7
	@DEBUG_VALUE: __uninit_default_n<float *, unsigned int>:__first <- %R7
	@DEBUG_VALUE: __uninitialized_default_n<float *, unsigned int>:__assignable <- 1
	@DEBUG_VALUE: __uninitialized_default_n<float *, unsigned int>:__first <- %R7
	@DEBUG_VALUE: __uninitialized_default_n_a<float *, unsigned int, float>:__first <- %R7
	@DEBUG_VALUE: __new_finish <- %R7
	.loc	57 754 11               @ /usr/bin/../lib/gcc/arm-linux-gnueabihf/6.3.0/../../../../include/c++/6.3.0/bits/stl_algobase.h:754:11
	lsl	r2, r5, #2
	mov	r1, #0
	mov	r0, r7
	bl	memset
.Ltmp544:
	.loc	61 578 36               @ /usr/bin/../lib/gcc/arm-linux-gnueabihf/6.3.0/../../../../include/c++/6.3.0/bits/vector.tcc:578:36
	ldr	r0, [r4]
.Ltmp545:
	@DEBUG_VALUE: _M_deallocate:__p <- %R0
	@DEBUG_VALUE: deallocate:__p <- %R0
	@DEBUG_VALUE: deallocate:__p <- %R0
	.loc	57 754 11               @ /usr/bin/../lib/gcc/arm-linux-gnueabihf/6.3.0/../../../../include/c++/6.3.0/bits/stl_algobase.h:754:11
	add	r5, r7, r5, lsl #2
.Ltmp546:
	@DEBUG_VALUE: __new_finish <- %R5
	.loc	9 177 6                 @ /usr/bin/../lib/gcc/arm-linux-gnueabihf/6.3.0/../../../../include/c++/6.3.0/bits/stl_vector.h:177:6
	cmp	r0, #0
	beq	.LBB12_10
.Ltmp547:
@ BB#9:
	@DEBUG_VALUE: __new_finish <- %R5
	@DEBUG_VALUE: deallocate:__p <- %R0
	@DEBUG_VALUE: deallocate:__p <- %R0
	@DEBUG_VALUE: _M_deallocate:__p <- %R0
	@DEBUG_VALUE: __uninitialized_default_n_a<float *, unsigned int, float>:__first <- %R7
	@DEBUG_VALUE: __uninitialized_default_n<float *, unsigned int>:__first <- %R7
	@DEBUG_VALUE: __uninit_default_n<float *, unsigned int>:__first <- %R7
	@DEBUG_VALUE: fill_n<float *, unsigned int, float>:__first <- %R7
	@DEBUG_VALUE: __fill_n_a<float *, unsigned int, float>:__first <- %R7
	@DEBUG_VALUE: allocate:__n <- %R8
	@DEBUG_VALUE: allocate:__n <- %R8
	@DEBUG_VALUE: __len <- %R8
	@DEBUG_VALUE: _M_allocate:__n <- %R8
	@DEBUG_VALUE: size:this <- %R4
	@DEBUG_VALUE: _M_default_append:this <- %R4
	.loc	5 110 9                 @ /usr/bin/../lib/gcc/arm-linux-gnueabihf/6.3.0/../../../../include/c++/6.3.0/ext/new_allocator.h:110:9
	bl	_ZdlPv
.Ltmp548:
.LBB12_10:                              @ %_ZNSt12_Vector_baseIfSaIfEE13_M_deallocateEPfj.exit31
	@DEBUG_VALUE: __new_finish <- %R5
	@DEBUG_VALUE: __uninitialized_default_n_a<float *, unsigned int, float>:__first <- %R7
	@DEBUG_VALUE: __uninitialized_default_n<float *, unsigned int>:__first <- %R7
	@DEBUG_VALUE: __uninit_default_n<float *, unsigned int>:__first <- %R7
	@DEBUG_VALUE: fill_n<float *, unsigned int, float>:__first <- %R7
	@DEBUG_VALUE: __fill_n_a<float *, unsigned int, float>:__first <- %R7
	@DEBUG_VALUE: allocate:__n <- %R8
	@DEBUG_VALUE: allocate:__n <- %R8
	@DEBUG_VALUE: __len <- %R8
	@DEBUG_VALUE: _M_allocate:__n <- %R8
	@DEBUG_VALUE: size:this <- %R4
	@DEBUG_VALUE: _M_default_append:this <- %R4
	.loc	61 581 31               @ /usr/bin/../lib/gcc/arm-linux-gnueabihf/6.3.0/../../../../include/c++/6.3.0/bits/vector.tcc:581:31
	str	r6, [r4]
	.loc	61 583 54               @ /usr/bin/../lib/gcc/arm-linux-gnueabihf/6.3.0/../../../../include/c++/6.3.0/bits/vector.tcc:583:54
	add	r0, r6, r8, lsl #2
	.loc	61 582 32               @ /usr/bin/../lib/gcc/arm-linux-gnueabihf/6.3.0/../../../../include/c++/6.3.0/bits/vector.tcc:582:32
	str	r5, [r4, #4]
	.loc	61 583 40               @ /usr/bin/../lib/gcc/arm-linux-gnueabihf/6.3.0/../../../../include/c++/6.3.0/bits/vector.tcc:583:40
	str	r0, [r4, #8]
.Ltmp549:
.LBB12_11:
	@DEBUG_VALUE: _M_default_append:this <- %R4
	.loc	61 586 5 discriminator 2 @ /usr/bin/../lib/gcc/arm-linux-gnueabihf/6.3.0/../../../../include/c++/6.3.0/bits/vector.tcc:586:5
	pop	{r4, r5, r6, r7, r8, r10, r11, pc}
.Ltmp550:
.LBB12_12:                              @ %_ZSt27__uninitialized_default_n_aIPfjfET_S1_T0_RSaIT1_E.exit
	@DEBUG_VALUE: _M_default_append:this <- %R4
	@DEBUG_VALUE: _M_default_append:__n <- %R5
	@DEBUG_VALUE: __uninitialized_default_n<float *, unsigned int>:__assignable <- 1
	@DEBUG_VALUE: __niter <- %R5
	.loc	57 754 11               @ /usr/bin/../lib/gcc/arm-linux-gnueabihf/6.3.0/../../../../include/c++/6.3.0/bits/stl_algobase.h:754:11
	lsl	r2, r5, #2
	mov	r0, r7
	mov	r1, #0
	bl	memset
	add	r0, r7, r5, lsl #2
.Ltmp551:
	.loc	61 548 32               @ /usr/bin/../lib/gcc/arm-linux-gnueabihf/6.3.0/../../../../include/c++/6.3.0/bits/vector.tcc:548:32
	str	r0, [r4, #4]
.Ltmp552:
	.loc	61 586 5 discriminator 2 @ /usr/bin/../lib/gcc/arm-linux-gnueabihf/6.3.0/../../../../include/c++/6.3.0/bits/vector.tcc:586:5
	pop	{r4, r5, r6, r7, r8, r10, r11, pc}
.Ltmp553:
.LBB12_13:
	@DEBUG_VALUE: _M_check_len:__n <- %R5
	@DEBUG_VALUE: size:this <- %R4
	@DEBUG_VALUE: _M_default_append:this <- %R4
	@DEBUG_VALUE: _M_default_append:__n <- %R5
	.loc	9 1423 4                @ /usr/bin/../lib/gcc/arm-linux-gnueabihf/6.3.0/../../../../include/c++/6.3.0/bits/stl_vector.h:1423:4
	movw	r0, :lower16:.L.str.27
	movt	r0, :upper16:.L.str.27
.Ltmp554:
	@DEBUG_VALUE: _M_check_len:__s <- %R0
	mov	lr, pc
	b	_ZSt20__throw_length_errorPKc
.Ltmp555:
.LBB12_14:
	@DEBUG_VALUE: _M_check_len:__len <- %R0
	@DEBUG_VALUE: allocate:__n <- %R8
	@DEBUG_VALUE: allocate:__n <- %R8
	@DEBUG_VALUE: __len <- %R8
	@DEBUG_VALUE: _M_allocate:__n <- %R8
	@DEBUG_VALUE: _M_check_len:__n <- %R5
	@DEBUG_VALUE: size:this <- %R4
	@DEBUG_VALUE: _M_default_append:this <- %R4
	@DEBUG_VALUE: _M_default_append:__n <- %R5
	.loc	5 102 4                 @ /usr/bin/../lib/gcc/arm-linux-gnueabihf/6.3.0/../../../../include/c++/6.3.0/ext/new_allocator.h:102:4
	mov	lr, pc
	b	_ZSt17__throw_bad_allocv
.Ltmp556:
.Lfunc_end12:
	.size	_ZNSt6vectorIfSaIfEE17_M_default_appendEj, .Lfunc_end12-_ZNSt6vectorIfSaIfEE17_M_default_appendEj
	.cfi_endproc
	.fnend

	.section	.text.startup,"ax",%progbits
	.p2align	2
	.type	_GLOBAL__sub_I_render.ii,%function
_GLOBAL__sub_I_render.ii:               @ @_GLOBAL__sub_I_render.ii
.Lfunc_begin13:
	.loc	40 0 0                  @ /root/Bela/projects/crosssynthesis-0922/build/render.cpp:0:0
	.fnstart
	.cfi_startproc
@ BB#0:
	.save	{r4, r5, r6, r7, r8, r9, r10, r11, lr}
	push	{r4, r5, r6, r7, r8, r9, r10, r11, lr}
.Ltmp557:
	.cfi_def_cfa_offset 36
.Ltmp558:
	.cfi_offset lr, -4
.Ltmp559:
	.cfi_offset r11, -8
.Ltmp560:
	.cfi_offset r10, -12
.Ltmp561:
	.cfi_offset r9, -16
.Ltmp562:
	.cfi_offset r8, -20
.Ltmp563:
	.cfi_offset r7, -24
.Ltmp564:
	.cfi_offset r6, -28
.Ltmp565:
	.cfi_offset r5, -32
.Ltmp566:
	.cfi_offset r4, -36
	.setfp	r11, sp, #28
	add	r11, sp, #28
.Ltmp567:
	.cfi_def_cfa r11, 8
	.pad	#4
	sub	sp, sp, #4
	.vsave	{d8, d9}
	vpush	{d8, d9}
.Ltmp568:
	.cfi_offset d9, -48
.Ltmp569:
	.cfi_offset d8, -56
.Ltmp570:
	.loc	2 56 18 prologue_end    @ ./libraries/Fft/Fft.h:56:18
	movw	r4, :lower16:.L_MergedGlobals.2
.Ltmp571:
	.loc	11 28 5 discriminator 1 @ /root/Bela/projects/crosssynthesis-0922/render.cpp:28:5
	movw	r5, :lower16:_ZN3FftD2Ev
.Ltmp572:
	.loc	2 56 18                 @ ./libraries/Fft/Fft.h:56:18
	movt	r4, :upper16:.L_MergedGlobals.2
.Ltmp573:
	.loc	11 28 5 discriminator 1 @ /root/Bela/projects/crosssynthesis-0922/render.cpp:28:5
	movw	r9, :lower16:__dso_handle
	mov	r6, #0
.Ltmp574:
	.loc	2 56 18                 @ ./libraries/Fft/Fft.h:56:18
	mov	r1, r4
	str	r6, [r1, #36]!
.Ltmp575:
	@DEBUG_VALUE: Fft:this <- %R1
	.loc	11 28 5 discriminator 1 @ /root/Bela/projects/crosssynthesis-0922/render.cpp:28:5
	movt	r5, :upper16:_ZN3FftD2Ev
	movt	r9, :upper16:__dso_handle
	mov	r0, r5
	mov	r2, r9
.Ltmp576:
	.loc	2 57 26                 @ ./libraries/Fft/Fft.h:57:26
	str	r6, [r4, #40]
	.loc	2 58 29                 @ ./libraries/Fft/Fft.h:58:29
	str	r6, [r4, #44]
.Ltmp577:
	.loc	11 28 5 discriminator 1 @ /root/Bela/projects/crosssynthesis-0922/render.cpp:28:5
	bl	__cxa_atexit
.Ltmp578:
	.loc	2 56 18                 @ ./libraries/Fft/Fft.h:56:18
	mov	r1, r4
.Ltmp579:
	.loc	11 29 5 discriminator 1 @ /root/Bela/projects/crosssynthesis-0922/render.cpp:29:5
	mov	r0, r5
.Ltmp580:
	.loc	2 56 18                 @ ./libraries/Fft/Fft.h:56:18
	str	r6, [r1, #52]!
.Ltmp581:
	.loc	11 29 5 discriminator 1 @ /root/Bela/projects/crosssynthesis-0922/render.cpp:29:5
	mov	r2, r9
.Ltmp582:
	.loc	2 57 26                 @ ./libraries/Fft/Fft.h:57:26
	str	r6, [r4, #56]
	.loc	2 58 29                 @ ./libraries/Fft/Fft.h:58:29
	str	r6, [r4, #60]
.Ltmp583:
	.loc	11 29 5 discriminator 1 @ /root/Bela/projects/crosssynthesis-0922/render.cpp:29:5
	bl	__cxa_atexit
.Ltmp584:
	.loc	2 56 18                 @ ./libraries/Fft/Fft.h:56:18
	mov	r1, r4
.Ltmp585:
	.loc	11 30 5 discriminator 1 @ /root/Bela/projects/crosssynthesis-0922/render.cpp:30:5
	mov	r0, r5
.Ltmp586:
	.loc	2 56 18                 @ ./libraries/Fft/Fft.h:56:18
	str	r6, [r1, #68]!
.Ltmp587:
	.loc	11 30 5 discriminator 1 @ /root/Bela/projects/crosssynthesis-0922/render.cpp:30:5
	mov	r2, r9
.Ltmp588:
	.loc	2 57 26                 @ ./libraries/Fft/Fft.h:57:26
	str	r6, [r4, #72]
	.loc	2 58 29                 @ ./libraries/Fft/Fft.h:58:29
	str	r6, [r4, #76]
.Ltmp589:
	.loc	11 30 5 discriminator 1 @ /root/Bela/projects/crosssynthesis-0922/render.cpp:30:5
	bl	__cxa_atexit
.Ltmp590:
	.loc	9 87 22                 @ /usr/bin/../lib/gcc/arm-linux-gnueabihf/6.3.0/../../../../include/c++/6.3.0/bits/stl_vector.h:87:22
	movw	r7, :lower16:.L_MergedGlobals
.Ltmp591:
	.loc	11 37 20 discriminator 1 @ /root/Bela/projects/crosssynthesis-0922/render.cpp:37:20
	movw	r0, :lower16:_ZNSt6vectorIfSaIfEED2Ev
.Ltmp592:
	.loc	9 87 22                 @ /usr/bin/../lib/gcc/arm-linux-gnueabihf/6.3.0/../../../../include/c++/6.3.0/bits/stl_vector.h:87:22
	movt	r7, :upper16:.L_MergedGlobals
.Ltmp593:
	.loc	11 37 20 discriminator 1 @ /root/Bela/projects/crosssynthesis-0922/render.cpp:37:20
	movt	r0, :upper16:_ZNSt6vectorIfSaIfEED2Ev
.Ltmp594:
	.loc	9 87 22                 @ /usr/bin/../lib/gcc/arm-linux-gnueabihf/6.3.0/../../../../include/c++/6.3.0/bits/stl_vector.h:87:22
	mov	r1, r7
.Ltmp595:
	.loc	11 37 20 discriminator 1 @ /root/Bela/projects/crosssynthesis-0922/render.cpp:37:20
	mov	r2, r9
.Ltmp596:
	.loc	9 87 22                 @ /usr/bin/../lib/gcc/arm-linux-gnueabihf/6.3.0/../../../../include/c++/6.3.0/bits/stl_vector.h:87:22
	str	r6, [r1, #48]!
.Ltmp597:
	@DEBUG_VALUE: vector:this <- %R1
	mov	r5, r0
	.loc	9 87 34 is_stmt 0       @ /usr/bin/../lib/gcc/arm-linux-gnueabihf/6.3.0/../../../../include/c++/6.3.0/bits/stl_vector.h:87:34
	str	r6, [r7, #52]
	.loc	9 87 47                 @ /usr/bin/../lib/gcc/arm-linux-gnueabihf/6.3.0/../../../../include/c++/6.3.0/bits/stl_vector.h:87:47
	str	r6, [r7, #56]
.Ltmp598:
	.loc	11 37 20 is_stmt 1 discriminator 1 @ /root/Bela/projects/crosssynthesis-0922/render.cpp:37:20
	bl	__cxa_atexit
.Ltmp599:
	.loc	9 87 22                 @ /usr/bin/../lib/gcc/arm-linux-gnueabihf/6.3.0/../../../../include/c++/6.3.0/bits/stl_vector.h:87:22
	mov	r1, r7
.Ltmp600:
	.loc	11 38 20 discriminator 1 @ /root/Bela/projects/crosssynthesis-0922/render.cpp:38:20
	mov	r0, r5
.Ltmp601:
	.loc	9 87 22                 @ /usr/bin/../lib/gcc/arm-linux-gnueabihf/6.3.0/../../../../include/c++/6.3.0/bits/stl_vector.h:87:22
	str	r6, [r1, #60]!
.Ltmp602:
	.loc	11 38 20 discriminator 1 @ /root/Bela/projects/crosssynthesis-0922/render.cpp:38:20
	mov	r2, r9
.Ltmp603:
	.loc	9 87 34                 @ /usr/bin/../lib/gcc/arm-linux-gnueabihf/6.3.0/../../../../include/c++/6.3.0/bits/stl_vector.h:87:34
	str	r6, [r7, #64]
	.loc	9 87 47 is_stmt 0       @ /usr/bin/../lib/gcc/arm-linux-gnueabihf/6.3.0/../../../../include/c++/6.3.0/bits/stl_vector.h:87:47
	str	r6, [r7, #68]
.Ltmp604:
	.loc	11 38 20 is_stmt 1 discriminator 1 @ /root/Bela/projects/crosssynthesis-0922/render.cpp:38:20
	bl	__cxa_atexit
.Ltmp605:
	.loc	9 87 22                 @ /usr/bin/../lib/gcc/arm-linux-gnueabihf/6.3.0/../../../../include/c++/6.3.0/bits/stl_vector.h:87:22
	mov	r1, r7
.Ltmp606:
	.loc	11 43 20 discriminator 1 @ /root/Bela/projects/crosssynthesis-0922/render.cpp:43:20
	mov	r0, r5
.Ltmp607:
	.loc	9 87 22                 @ /usr/bin/../lib/gcc/arm-linux-gnueabihf/6.3.0/../../../../include/c++/6.3.0/bits/stl_vector.h:87:22
	str	r6, [r1, #72]!
.Ltmp608:
	.loc	11 43 20 discriminator 1 @ /root/Bela/projects/crosssynthesis-0922/render.cpp:43:20
	mov	r2, r9
.Ltmp609:
	.loc	9 87 34                 @ /usr/bin/../lib/gcc/arm-linux-gnueabihf/6.3.0/../../../../include/c++/6.3.0/bits/stl_vector.h:87:34
	str	r6, [r7, #76]
	.loc	9 87 47 is_stmt 0       @ /usr/bin/../lib/gcc/arm-linux-gnueabihf/6.3.0/../../../../include/c++/6.3.0/bits/stl_vector.h:87:47
	str	r6, [r7, #80]
.Ltmp610:
	.loc	11 43 20 is_stmt 1 discriminator 1 @ /root/Bela/projects/crosssynthesis-0922/render.cpp:43:20
	bl	__cxa_atexit
.Ltmp611:
	.loc	11 44 44                @ /root/Bela/projects/crosssynthesis-0922/render.cpp:44:44
	ldr	r0, [r7]
.Ltmp612:
	.loc	9 87 22                 @ /usr/bin/../lib/gcc/arm-linux-gnueabihf/6.3.0/../../../../include/c++/6.3.0/bits/stl_vector.h:87:22
	mov	r1, r7
.Ltmp613:
	.loc	11 48 20 discriminator 1 @ /root/Bela/projects/crosssynthesis-0922/render.cpp:48:20
	mov	r2, r9
.Ltmp614:
	.loc	11 44 42                @ /root/Bela/projects/crosssynthesis-0922/render.cpp:44:42
	add	r0, r0, #2048
	str	r0, [r7, #12]
.Ltmp615:
	.loc	9 87 22                 @ /usr/bin/../lib/gcc/arm-linux-gnueabihf/6.3.0/../../../../include/c++/6.3.0/bits/stl_vector.h:87:22
	str	r6, [r1, #84]!
.Ltmp616:
	.loc	11 48 20 discriminator 1 @ /root/Bela/projects/crosssynthesis-0922/render.cpp:48:20
	mov	r0, r5
.Ltmp617:
	.loc	9 87 34                 @ /usr/bin/../lib/gcc/arm-linux-gnueabihf/6.3.0/../../../../include/c++/6.3.0/bits/stl_vector.h:87:34
	str	r6, [r7, #88]
	.loc	9 87 47 is_stmt 0       @ /usr/bin/../lib/gcc/arm-linux-gnueabihf/6.3.0/../../../../include/c++/6.3.0/bits/stl_vector.h:87:47
	str	r6, [r7, #92]
.Ltmp618:
	.loc	11 48 20 is_stmt 1 discriminator 1 @ /root/Bela/projects/crosssynthesis-0922/render.cpp:48:20
	bl	__cxa_atexit
.Ltmp619:
	.loc	9 87 22                 @ /usr/bin/../lib/gcc/arm-linux-gnueabihf/6.3.0/../../../../include/c++/6.3.0/bits/stl_vector.h:87:22
	mov	r1, r7
.Ltmp620:
	.loc	11 49 20 discriminator 1 @ /root/Bela/projects/crosssynthesis-0922/render.cpp:49:20
	mov	r0, r5
.Ltmp621:
	.loc	9 87 22                 @ /usr/bin/../lib/gcc/arm-linux-gnueabihf/6.3.0/../../../../include/c++/6.3.0/bits/stl_vector.h:87:22
	str	r6, [r1, #96]!
.Ltmp622:
	.loc	11 49 20 discriminator 1 @ /root/Bela/projects/crosssynthesis-0922/render.cpp:49:20
	mov	r2, r9
.Ltmp623:
	.loc	9 87 34                 @ /usr/bin/../lib/gcc/arm-linux-gnueabihf/6.3.0/../../../../include/c++/6.3.0/bits/stl_vector.h:87:34
	str	r6, [r7, #100]
	.loc	9 87 47 is_stmt 0       @ /usr/bin/../lib/gcc/arm-linux-gnueabihf/6.3.0/../../../../include/c++/6.3.0/bits/stl_vector.h:87:47
	str	r6, [r7, #104]
.Ltmp624:
	.loc	11 49 20 is_stmt 1 discriminator 1 @ /root/Bela/projects/crosssynthesis-0922/render.cpp:49:20
	bl	__cxa_atexit
.Ltmp625:
	.loc	31 110 25               @ /usr/bin/../lib/gcc/arm-linux-gnueabihf/6.3.0/../../../../include/c++/6.3.0/bits/basic_string.h:110:25
	add	r0, r4, #92
	str	r0, [r4, #84]
.Ltmp626:
	@DEBUG_VALUE: _S_copy:__n <- 9
	@DEBUG_VALUE: _M_construct<const char *>:__dnew <- 9
	.loc	33 290 33               @ /usr/bin/../lib/gcc/arm-linux-gnueabihf/6.3.0/../../../../include/c++/6.3.0/bits/char_traits.h:290:33
	movw	r0, :lower16:.L.str
.Ltmp627:
	.loc	11 52 13 discriminator 6 @ /root/Bela/projects/crosssynthesis-0922/render.cpp:52:13
	movw	r10, :lower16:_ZNSt7__cxx1112basic_stringIcSt11char_traitsIcESaIcEED2Ev
.Ltmp628:
	.loc	33 290 33               @ /usr/bin/../lib/gcc/arm-linux-gnueabihf/6.3.0/../../../../include/c++/6.3.0/bits/char_traits.h:290:33
	movt	r0, :upper16:.L.str
.Ltmp629:
	.loc	31 110 25               @ /usr/bin/../lib/gcc/arm-linux-gnueabihf/6.3.0/../../../../include/c++/6.3.0/bits/basic_string.h:110:25
	add	r1, r4, #84
.Ltmp630:
	@DEBUG_VALUE: _M_length:this <- %R1
	@DEBUG_VALUE: _M_set_length:__n <- 9
	@DEBUG_VALUE: _M_set_length:this <- %R1
	@DEBUG_VALUE: _M_construct<const char *>:this <- %R1
	@DEBUG_VALUE: _M_construct_aux<const char *>:this <- %R1
	@DEBUG_VALUE: _M_construct<const char *>:this <- %R1
	@DEBUG_VALUE: basic_string:this <- %R1
	.loc	33 290 33               @ /usr/bin/../lib/gcc/arm-linux-gnueabihf/6.3.0/../../../../include/c++/6.3.0/bits/char_traits.h:290:33
	vldr	d16, [r0]
	mov	r0, #118
.Ltmp631:
	.loc	11 52 13 discriminator 6 @ /root/Bela/projects/crosssynthesis-0922/render.cpp:52:13
	movt	r10, :upper16:_ZNSt7__cxx1112basic_stringIcSt11char_traitsIcESaIcEED2Ev
.Ltmp632:
	.loc	33 290 33               @ /usr/bin/../lib/gcc/arm-linux-gnueabihf/6.3.0/../../../../include/c++/6.3.0/bits/char_traits.h:290:33
	strb	r0, [r4, #100]
	mov	r8, #9
.Ltmp633:
	@DEBUG_VALUE: _M_length:__length <- 9
	.loc	11 52 13 discriminator 6 @ /root/Bela/projects/crosssynthesis-0922/render.cpp:52:13
	mov	r0, r10
	mov	r2, r9
.Ltmp634:
	.loc	33 290 33               @ /usr/bin/../lib/gcc/arm-linux-gnueabihf/6.3.0/../../../../include/c++/6.3.0/bits/char_traits.h:290:33
	vstr	d16, [r4, #92]
.Ltmp635:
	.loc	31 132 26               @ /usr/bin/../lib/gcc/arm-linux-gnueabihf/6.3.0/../../../../include/c++/6.3.0/bits/basic_string.h:132:26
	str	r8, [r4, #88]
.Ltmp636:
	.loc	33 243 14               @ /usr/bin/../lib/gcc/arm-linux-gnueabihf/6.3.0/../../../../include/c++/6.3.0/bits/char_traits.h:243:14
	strb	r6, [r4, #101]
.Ltmp637:
	.loc	11 52 13 discriminator 6 @ /root/Bela/projects/crosssynthesis-0922/render.cpp:52:13
	bl	__cxa_atexit
.Ltmp638:
	.loc	31 110 25               @ /usr/bin/../lib/gcc/arm-linux-gnueabihf/6.3.0/../../../../include/c++/6.3.0/bits/basic_string.h:110:25
	movw	r5, :lower16:.L_MergedGlobals.3
.Ltmp639:
	.loc	11 53 13 discriminator 6 @ /root/Bela/projects/crosssynthesis-0922/render.cpp:53:13
	mov	r2, r9
.Ltmp640:
	.loc	31 110 25               @ /usr/bin/../lib/gcc/arm-linux-gnueabihf/6.3.0/../../../../include/c++/6.3.0/bits/basic_string.h:110:25
	movt	r5, :upper16:.L_MergedGlobals.3
	add	r0, r5, #8
.Ltmp641:
	@DEBUG_VALUE: _S_copy:__d <- %R0
	@DEBUG_VALUE: _M_construct<const char *>:__dnew <- 9
	str	r0, [r5]
.Ltmp642:
	@DEBUG_VALUE: _S_copy:__n <- 9
	.loc	33 290 33               @ /usr/bin/../lib/gcc/arm-linux-gnueabihf/6.3.0/../../../../include/c++/6.3.0/bits/char_traits.h:290:33
	movw	r0, :lower16:.L.str.11
.Ltmp643:
	movt	r0, :upper16:.L.str.11
.Ltmp644:
	.loc	11 53 13 discriminator 6 @ /root/Bela/projects/crosssynthesis-0922/render.cpp:53:13
	mov	r1, r5
.Ltmp645:
	.loc	33 290 33               @ /usr/bin/../lib/gcc/arm-linux-gnueabihf/6.3.0/../../../../include/c++/6.3.0/bits/char_traits.h:290:33
	vldr	d16, [r0]
	mov	r0, #118
	strb	r0, [r5, #16]
.Ltmp646:
	.loc	11 53 13 discriminator 6 @ /root/Bela/projects/crosssynthesis-0922/render.cpp:53:13
	mov	r0, r10
.Ltmp647:
	.loc	33 290 33               @ /usr/bin/../lib/gcc/arm-linux-gnueabihf/6.3.0/../../../../include/c++/6.3.0/bits/char_traits.h:290:33
	vstr	d16, [r5, #8]
.Ltmp648:
	@DEBUG_VALUE: _M_length:__length <- 9
	@DEBUG_VALUE: _M_set_length:__n <- 9
	.loc	31 132 26               @ /usr/bin/../lib/gcc/arm-linux-gnueabihf/6.3.0/../../../../include/c++/6.3.0/bits/basic_string.h:132:26
	str	r8, [r5, #4]
.Ltmp649:
	.loc	33 243 14               @ /usr/bin/../lib/gcc/arm-linux-gnueabihf/6.3.0/../../../../include/c++/6.3.0/bits/char_traits.h:243:14
	strb	r6, [r5, #17]
.Ltmp650:
	.loc	11 53 13 discriminator 6 @ /root/Bela/projects/crosssynthesis-0922/render.cpp:53:13
	bl	__cxa_atexit
.Ltmp651:
	.loc	9 87 34                 @ /usr/bin/../lib/gcc/arm-linux-gnueabihf/6.3.0/../../../../include/c++/6.3.0/bits/stl_vector.h:87:34
	movw	r1, :lower16:gPlayerMag
	vmov.i32	q4, #0x0
	movt	r1, :upper16:gPlayerMag
.Ltmp652:
	@DEBUG_VALUE: MonoFilePlayer:this <- %R1
	.loc	11 56 16 discriminator 1 @ /root/Bela/projects/crosssynthesis-0922/render.cpp:56:16
	movw	r10, :lower16:_ZN14MonoFilePlayerD2Ev
.Ltmp653:
	.loc	9 87 34                 @ /usr/bin/../lib/gcc/arm-linux-gnueabihf/6.3.0/../../../../include/c++/6.3.0/bits/stl_vector.h:87:34
	mov	r0, r1
.Ltmp654:
	.loc	11 56 16 discriminator 1 @ /root/Bela/projects/crosssynthesis-0922/render.cpp:56:16
	movt	r10, :upper16:_ZN14MonoFilePlayerD2Ev
.Ltmp655:
	.loc	9 87 34                 @ /usr/bin/../lib/gcc/arm-linux-gnueabihf/6.3.0/../../../../include/c++/6.3.0/bits/stl_vector.h:87:34
	vst1.32	{d8, d9}, [r0]!
.Ltmp656:
	.loc	11 56 16 discriminator 1 @ /root/Bela/projects/crosssynthesis-0922/render.cpp:56:16
	mov	r2, r9
.Ltmp657:
	.loc	9 87 34                 @ /usr/bin/../lib/gcc/arm-linux-gnueabihf/6.3.0/../../../../include/c++/6.3.0/bits/stl_vector.h:87:34
	strh	r6, [r0]
.Ltmp658:
	.loc	11 56 16 discriminator 1 @ /root/Bela/projects/crosssynthesis-0922/render.cpp:56:16
	mov	r0, r10
	bl	__cxa_atexit
.Ltmp659:
	.loc	9 87 34                 @ /usr/bin/../lib/gcc/arm-linux-gnueabihf/6.3.0/../../../../include/c++/6.3.0/bits/stl_vector.h:87:34
	movw	r1, :lower16:gPlayerPhi
.Ltmp660:
	.loc	11 57 16 discriminator 1 @ /root/Bela/projects/crosssynthesis-0922/render.cpp:57:16
	mov	r2, r9
.Ltmp661:
	.loc	9 87 34                 @ /usr/bin/../lib/gcc/arm-linux-gnueabihf/6.3.0/../../../../include/c++/6.3.0/bits/stl_vector.h:87:34
	movt	r1, :upper16:gPlayerPhi
	mov	r0, r1
	vst1.32	{d8, d9}, [r0]!
	strh	r6, [r0]
.Ltmp662:
	.loc	11 57 16 discriminator 1 @ /root/Bela/projects/crosssynthesis-0922/render.cpp:57:16
	mov	r0, r10
	bl	__cxa_atexit
.Ltmp663:
	.loc	11 66 7                 @ /root/Bela/projects/crosssynthesis-0922/render.cpp:66:7
	movw	r10, :lower16:gScope
	movt	r10, :upper16:gScope
	mov	r0, r10
	bl	_ZN5ScopeC1Ev
	.loc	11 66 7 is_stmt 0 discriminator 1 @ /root/Bela/projects/crosssynthesis-0922/render.cpp:66:7
	movw	r0, :lower16:_ZN5ScopeD1Ev
	mov	r1, r10
	movt	r0, :upper16:_ZN5ScopeD1Ev
	mov	r2, r9
	bl	__cxa_atexit
.Ltmp664:
	.loc	11 69 5 is_stmt 1       @ /root/Bela/projects/crosssynthesis-0922/render.cpp:69:5
	movw	r10, :lower16:gGui
	movt	r10, :upper16:gGui
	mov	r0, r10
	bl	_ZN3GuiC1Ev
	.loc	11 69 5 is_stmt 0 discriminator 1 @ /root/Bela/projects/crosssynthesis-0922/render.cpp:69:5
	movw	r0, :lower16:_ZN3GuiD1Ev
	mov	r1, r10
	movt	r0, :upper16:_ZN3GuiD1Ev
	mov	r2, r9
	bl	__cxa_atexit
.Ltmp665:
	.loc	11 70 15 is_stmt 1      @ /root/Bela/projects/crosssynthesis-0922/render.cpp:70:15
	add	r5, r5, #24
	mov	r0, r5
	bl	_ZN13GuiControllerC1Ev
	.loc	11 70 15 is_stmt 0 discriminator 1 @ /root/Bela/projects/crosssynthesis-0922/render.cpp:70:15
	movw	r0, :lower16:_ZN13GuiControllerD1Ev
	mov	r1, r5
	movt	r0, :upper16:_ZN13GuiControllerD1Ev
	mov	r2, r9
	bl	__cxa_atexit
.Ltmp666:
	.loc	11 73 7 is_stmt 1       @ /root/Bela/projects/crosssynthesis-0922/render.cpp:73:7
	movw	r5, :lower16:.L_MergedGlobals.4
	movt	r5, :upper16:.L_MergedGlobals.4
	mov	r0, r5
	bl	_ZN5TrillC1Ev
	.loc	11 73 7 is_stmt 0 discriminator 1 @ /root/Bela/projects/crosssynthesis-0922/render.cpp:73:7
	movw	r0, :lower16:_ZN5TrillD1Ev
	mov	r1, r5
	movt	r0, :upper16:_ZN5TrillD1Ev
	mov	r2, r9
	bl	__cxa_atexit
.Ltmp667:
	@DEBUG_VALUE: _Vector_base:__n <- 2048
	@DEBUG_VALUE: vector:__n <- 2048
	.loc	9 91 25 is_stmt 1       @ /usr/bin/../lib/gcc/arm-linux-gnueabihf/6.3.0/../../../../include/c++/6.3.0/bits/stl_vector.h:91:25
	str	r6, [r7, #108]!
.Ltmp668:
	@DEBUG_VALUE: allocate:__n <- 2048
	@DEBUG_VALUE: allocate:__n <- 2048
	@DEBUG_VALUE: _M_allocate:__n <- 2048
	@DEBUG_VALUE: _M_create_storage:__n <- 2048
	.loc	5 104 27                @ /usr/bin/../lib/gcc/arm-linux-gnueabihf/6.3.0/../../../../include/c++/6.3.0/ext/new_allocator.h:104:27
	mov	r0, #8192
.Ltmp669:
	.loc	9 91 37                 @ /usr/bin/../lib/gcc/arm-linux-gnueabihf/6.3.0/../../../../include/c++/6.3.0/bits/stl_vector.h:91:37
	str	r6, [r7, #4]
	.loc	9 91 50 is_stmt 0       @ /usr/bin/../lib/gcc/arm-linux-gnueabihf/6.3.0/../../../../include/c++/6.3.0/bits/stl_vector.h:91:50
	str	r6, [r7, #8]
.Ltmp670:
	.loc	5 104 27 is_stmt 1      @ /usr/bin/../lib/gcc/arm-linux-gnueabihf/6.3.0/../../../../include/c++/6.3.0/ext/new_allocator.h:104:27
	bl	_Znwj
.Ltmp671:
	.loc	57 754 11               @ /usr/bin/../lib/gcc/arm-linux-gnueabihf/6.3.0/../../../../include/c++/6.3.0/bits/stl_algobase.h:754:11
	mov	r1, #0
	mov	r2, #8192
.Ltmp672:
	.loc	9 185 25                @ /usr/bin/../lib/gcc/arm-linux-gnueabihf/6.3.0/../../../../include/c++/6.3.0/bits/stl_vector.h:185:25
	str	r0, [r7]
	.loc	9 187 59                @ /usr/bin/../lib/gcc/arm-linux-gnueabihf/6.3.0/../../../../include/c++/6.3.0/bits/stl_vector.h:187:59
	add	r5, r0, #8192
	.loc	9 187 34 is_stmt 0      @ /usr/bin/../lib/gcc/arm-linux-gnueabihf/6.3.0/../../../../include/c++/6.3.0/bits/stl_vector.h:187:34
	str	r5, [r7, #8]
.Ltmp673:
	.loc	57 754 11 is_stmt 1     @ /usr/bin/../lib/gcc/arm-linux-gnueabihf/6.3.0/../../../../include/c++/6.3.0/bits/stl_algobase.h:754:11
	bl	memset
.Ltmp674:
	.loc	11 37 20 discriminator 1 @ /root/Bela/projects/crosssynthesis-0922/render.cpp:37:20
	movw	r8, :lower16:_ZNSt6vectorIfSaIfEED2Ev
.Ltmp675:
	.loc	11 81 20 discriminator 6 @ /root/Bela/projects/crosssynthesis-0922/render.cpp:81:20
	mov	r1, r7
.Ltmp676:
	.loc	11 37 20 discriminator 1 @ /root/Bela/projects/crosssynthesis-0922/render.cpp:37:20
	movt	r8, :upper16:_ZNSt6vectorIfSaIfEED2Ev
.Ltmp677:
	.loc	11 81 20 discriminator 6 @ /root/Bela/projects/crosssynthesis-0922/render.cpp:81:20
	mov	r2, r9
	mov	r0, r8
.Ltmp678:
	.loc	9 1308 26               @ /usr/bin/../lib/gcc/arm-linux-gnueabihf/6.3.0/../../../../include/c++/6.3.0/bits/stl_vector.h:1308:26
	str	r5, [r7, #4]
.Ltmp679:
	.loc	11 81 20 discriminator 6 @ /root/Bela/projects/crosssynthesis-0922/render.cpp:81:20
	bl	__cxa_atexit
.Ltmp680:
	.loc	5 104 27                @ /usr/bin/../lib/gcc/arm-linux-gnueabihf/6.3.0/../../../../include/c++/6.3.0/ext/new_allocator.h:104:27
	mov	r0, #8192
.Ltmp681:
	.loc	9 91 25                 @ /usr/bin/../lib/gcc/arm-linux-gnueabihf/6.3.0/../../../../include/c++/6.3.0/bits/stl_vector.h:91:25
	str	r6, [r4]
	.loc	9 91 37 is_stmt 0       @ /usr/bin/../lib/gcc/arm-linux-gnueabihf/6.3.0/../../../../include/c++/6.3.0/bits/stl_vector.h:91:37
	str	r6, [r4, #4]
	.loc	9 91 50                 @ /usr/bin/../lib/gcc/arm-linux-gnueabihf/6.3.0/../../../../include/c++/6.3.0/bits/stl_vector.h:91:50
	str	r6, [r4, #8]
.Ltmp682:
	.loc	5 104 27 is_stmt 1      @ /usr/bin/../lib/gcc/arm-linux-gnueabihf/6.3.0/../../../../include/c++/6.3.0/ext/new_allocator.h:104:27
	bl	_Znwj
.Ltmp683:
	.loc	57 754 11               @ /usr/bin/../lib/gcc/arm-linux-gnueabihf/6.3.0/../../../../include/c++/6.3.0/bits/stl_algobase.h:754:11
	mov	r1, #0
	mov	r2, #8192
.Ltmp684:
	.loc	9 185 25                @ /usr/bin/../lib/gcc/arm-linux-gnueabihf/6.3.0/../../../../include/c++/6.3.0/bits/stl_vector.h:185:25
	str	r0, [r4]
	.loc	9 187 59                @ /usr/bin/../lib/gcc/arm-linux-gnueabihf/6.3.0/../../../../include/c++/6.3.0/bits/stl_vector.h:187:59
	add	r5, r0, #8192
	.loc	9 187 34 is_stmt 0      @ /usr/bin/../lib/gcc/arm-linux-gnueabihf/6.3.0/../../../../include/c++/6.3.0/bits/stl_vector.h:187:34
	str	r5, [r4, #8]
.Ltmp685:
	.loc	57 754 11 is_stmt 1     @ /usr/bin/../lib/gcc/arm-linux-gnueabihf/6.3.0/../../../../include/c++/6.3.0/bits/stl_algobase.h:754:11
	bl	memset
.Ltmp686:
	.loc	11 82 20 discriminator 6 @ /root/Bela/projects/crosssynthesis-0922/render.cpp:82:20
	mov	r0, r8
	mov	r1, r4
	mov	r2, r9
.Ltmp687:
	.loc	9 1308 26               @ /usr/bin/../lib/gcc/arm-linux-gnueabihf/6.3.0/../../../../include/c++/6.3.0/bits/stl_vector.h:1308:26
	str	r5, [r4, #4]
.Ltmp688:
	.loc	11 82 20 discriminator 6 @ /root/Bela/projects/crosssynthesis-0922/render.cpp:82:20
	bl	__cxa_atexit
.Ltmp689:
	.loc	9 91 25                 @ /usr/bin/../lib/gcc/arm-linux-gnueabihf/6.3.0/../../../../include/c++/6.3.0/bits/stl_vector.h:91:25
	mov	r5, r4
.Ltmp690:
	.loc	5 104 27                @ /usr/bin/../lib/gcc/arm-linux-gnueabihf/6.3.0/../../../../include/c++/6.3.0/ext/new_allocator.h:104:27
	mov	r0, #8192
.Ltmp691:
	.loc	9 91 25                 @ /usr/bin/../lib/gcc/arm-linux-gnueabihf/6.3.0/../../../../include/c++/6.3.0/bits/stl_vector.h:91:25
	str	r6, [r5, #12]!
	.loc	9 91 37 is_stmt 0       @ /usr/bin/../lib/gcc/arm-linux-gnueabihf/6.3.0/../../../../include/c++/6.3.0/bits/stl_vector.h:91:37
	str	r6, [r4, #16]
	.loc	9 91 50                 @ /usr/bin/../lib/gcc/arm-linux-gnueabihf/6.3.0/../../../../include/c++/6.3.0/bits/stl_vector.h:91:50
	str	r6, [r4, #20]
.Ltmp692:
	.loc	5 104 27 is_stmt 1      @ /usr/bin/../lib/gcc/arm-linux-gnueabihf/6.3.0/../../../../include/c++/6.3.0/ext/new_allocator.h:104:27
	bl	_Znwj
.Ltmp693:
	.loc	57 754 11               @ /usr/bin/../lib/gcc/arm-linux-gnueabihf/6.3.0/../../../../include/c++/6.3.0/bits/stl_algobase.h:754:11
	mov	r1, #0
	mov	r2, #8192
.Ltmp694:
	.loc	9 185 25                @ /usr/bin/../lib/gcc/arm-linux-gnueabihf/6.3.0/../../../../include/c++/6.3.0/bits/stl_vector.h:185:25
	str	r0, [r5]
	.loc	9 187 59                @ /usr/bin/../lib/gcc/arm-linux-gnueabihf/6.3.0/../../../../include/c++/6.3.0/bits/stl_vector.h:187:59
	add	r7, r0, #8192
	.loc	9 187 34 is_stmt 0      @ /usr/bin/../lib/gcc/arm-linux-gnueabihf/6.3.0/../../../../include/c++/6.3.0/bits/stl_vector.h:187:34
	str	r7, [r4, #20]
.Ltmp695:
	.loc	57 754 11 is_stmt 1     @ /usr/bin/../lib/gcc/arm-linux-gnueabihf/6.3.0/../../../../include/c++/6.3.0/bits/stl_algobase.h:754:11
	bl	memset
.Ltmp696:
	.loc	11 83 20 discriminator 6 @ /root/Bela/projects/crosssynthesis-0922/render.cpp:83:20
	mov	r0, r8
	mov	r1, r5
	mov	r2, r9
.Ltmp697:
	.loc	9 1308 26               @ /usr/bin/../lib/gcc/arm-linux-gnueabihf/6.3.0/../../../../include/c++/6.3.0/bits/stl_vector.h:1308:26
	str	r7, [r4, #16]
.Ltmp698:
	.loc	11 83 20 discriminator 6 @ /root/Bela/projects/crosssynthesis-0922/render.cpp:83:20
	bl	__cxa_atexit
.Ltmp699:
	.loc	9 91 25                 @ /usr/bin/../lib/gcc/arm-linux-gnueabihf/6.3.0/../../../../include/c++/6.3.0/bits/stl_vector.h:91:25
	str	r6, [r4, #24]!
.Ltmp700:
	.loc	5 104 27                @ /usr/bin/../lib/gcc/arm-linux-gnueabihf/6.3.0/../../../../include/c++/6.3.0/ext/new_allocator.h:104:27
	mov	r0, #8192
.Ltmp701:
	.loc	9 91 37                 @ /usr/bin/../lib/gcc/arm-linux-gnueabihf/6.3.0/../../../../include/c++/6.3.0/bits/stl_vector.h:91:37
	str	r6, [r4, #4]
	.loc	9 91 50 is_stmt 0       @ /usr/bin/../lib/gcc/arm-linux-gnueabihf/6.3.0/../../../../include/c++/6.3.0/bits/stl_vector.h:91:50
	str	r6, [r4, #8]
.Ltmp702:
	.loc	5 104 27 is_stmt 1      @ /usr/bin/../lib/gcc/arm-linux-gnueabihf/6.3.0/../../../../include/c++/6.3.0/ext/new_allocator.h:104:27
	bl	_Znwj
.Ltmp703:
	.loc	57 754 11               @ /usr/bin/../lib/gcc/arm-linux-gnueabihf/6.3.0/../../../../include/c++/6.3.0/bits/stl_algobase.h:754:11
	mov	r1, #0
	mov	r2, #8192
.Ltmp704:
	.loc	9 185 25                @ /usr/bin/../lib/gcc/arm-linux-gnueabihf/6.3.0/../../../../include/c++/6.3.0/bits/stl_vector.h:185:25
	str	r0, [r4]
	.loc	9 187 59                @ /usr/bin/../lib/gcc/arm-linux-gnueabihf/6.3.0/../../../../include/c++/6.3.0/bits/stl_vector.h:187:59
	add	r5, r0, #8192
	.loc	9 187 34 is_stmt 0      @ /usr/bin/../lib/gcc/arm-linux-gnueabihf/6.3.0/../../../../include/c++/6.3.0/bits/stl_vector.h:187:34
	str	r5, [r4, #8]
.Ltmp705:
	.loc	57 754 11 is_stmt 1     @ /usr/bin/../lib/gcc/arm-linux-gnueabihf/6.3.0/../../../../include/c++/6.3.0/bits/stl_algobase.h:754:11
	bl	memset
.Ltmp706:
	.loc	9 1308 26               @ /usr/bin/../lib/gcc/arm-linux-gnueabihf/6.3.0/../../../../include/c++/6.3.0/bits/stl_vector.h:1308:26
	str	r5, [r4, #4]
.Ltmp707:
	.loc	11 84 20 discriminator 6 @ /root/Bela/projects/crosssynthesis-0922/render.cpp:84:20
	mov	r0, r8
	mov	r1, r4
	mov	r2, r9
.Ltmp708:
	@DEBUG_VALUE: Fft:this <- %R1
	@DEBUG_VALUE: Fft:this <- %R1
	@DEBUG_VALUE: vector:this <- %R1
	@DEBUG_VALUE: vector:this <- %R1
	@DEBUG_VALUE: vector:this <- %R1
	@DEBUG_VALUE: vector:this <- %R1
	@DEBUG_VALUE: _M_default_initialize:this <- %R7
	@DEBUG_VALUE: vector:this <- %R7
	@DEBUG_VALUE: _M_default_initialize:this <- %R5
	@DEBUG_VALUE: vector:this <- %R5
	@DEBUG_VALUE: _M_default_initialize:this <- %R4
	@DEBUG_VALUE: vector:this <- %R4
	@DEBUG_VALUE: _S_copy:__s <- %R0
	@DEBUG_VALUE: _S_copy:__s <- %R0
	@DEBUG_VALUE: MonoFilePlayer:this <- %R1
	@DEBUG_VALUE: _S_copy:__d <- %R0
	@DEBUG_VALUE: __niter <- 2048
	@DEBUG_VALUE: __fill_n_a<float *, unsigned int, float>:__n <- 2048
	@DEBUG_VALUE: fill_n<float *, unsigned int, float>:__n <- 2048
	@DEBUG_VALUE: __uninit_default_n<float *, unsigned int>:__n <- 2048
	@DEBUG_VALUE: __uninitialized_default_n<float *, unsigned int>:__assignable <- 1
	@DEBUG_VALUE: __uninitialized_default_n<float *, unsigned int>:__n <- 2048
	@DEBUG_VALUE: __uninitialized_default_n_a<float *, unsigned int, float>:__n <- 2048
	@DEBUG_VALUE: _M_default_initialize:__n <- 2048
	@DEBUG_VALUE: allocate:__n <- 2048
	@DEBUG_VALUE: allocate:__n <- 2048
	@DEBUG_VALUE: _M_allocate:__n <- 2048
	@DEBUG_VALUE: _M_create_storage:__n <- 2048
	@DEBUG_VALUE: _Vector_base:__n <- 2048
	@DEBUG_VALUE: vector:__n <- 2048
	@DEBUG_VALUE: __niter <- 2048
	@DEBUG_VALUE: __fill_n_a<float *, unsigned int, float>:__n <- 2048
	@DEBUG_VALUE: fill_n<float *, unsigned int, float>:__n <- 2048
	@DEBUG_VALUE: __uninit_default_n<float *, unsigned int>:__n <- 2048
	@DEBUG_VALUE: __uninitialized_default_n<float *, unsigned int>:__assignable <- 1
	@DEBUG_VALUE: __uninitialized_default_n<float *, unsigned int>:__n <- 2048
	@DEBUG_VALUE: __uninitialized_default_n_a<float *, unsigned int, float>:__n <- 2048
	@DEBUG_VALUE: _M_default_initialize:__n <- 2048
	@DEBUG_VALUE: allocate:__n <- 2048
	@DEBUG_VALUE: allocate:__n <- 2048
	@DEBUG_VALUE: _M_allocate:__n <- 2048
	@DEBUG_VALUE: _M_create_storage:__n <- 2048
	@DEBUG_VALUE: _Vector_base:__n <- 2048
	@DEBUG_VALUE: vector:__n <- 2048
	@DEBUG_VALUE: __niter <- 2048
	@DEBUG_VALUE: __fill_n_a<float *, unsigned int, float>:__n <- 2048
	@DEBUG_VALUE: fill_n<float *, unsigned int, float>:__n <- 2048
	@DEBUG_VALUE: __uninit_default_n<float *, unsigned int>:__n <- 2048
	@DEBUG_VALUE: __uninitialized_default_n<float *, unsigned int>:__assignable <- 1
	@DEBUG_VALUE: __uninitialized_default_n<float *, unsigned int>:__n <- 2048
	@DEBUG_VALUE: __uninitialized_default_n_a<float *, unsigned int, float>:__n <- 2048
	@DEBUG_VALUE: _M_default_initialize:__n <- 2048
	@DEBUG_VALUE: allocate:__n <- 2048
	@DEBUG_VALUE: allocate:__n <- 2048
	@DEBUG_VALUE: _M_allocate:__n <- 2048
	@DEBUG_VALUE: _M_create_storage:__n <- 2048
	@DEBUG_VALUE: _Vector_base:__n <- 2048
	@DEBUG_VALUE: vector:__n <- 2048
	@DEBUG_VALUE: __niter <- 2048
	@DEBUG_VALUE: __fill_n_a<float *, unsigned int, float>:__n <- 2048
	@DEBUG_VALUE: fill_n<float *, unsigned int, float>:__n <- 2048
	@DEBUG_VALUE: __uninit_default_n<float *, unsigned int>:__n <- 2048
	@DEBUG_VALUE: __uninitialized_default_n<float *, unsigned int>:__assignable <- 1
	@DEBUG_VALUE: __uninitialized_default_n<float *, unsigned int>:__n <- 2048
	@DEBUG_VALUE: __uninitialized_default_n_a<float *, unsigned int, float>:__n <- 2048
	@DEBUG_VALUE: _M_default_initialize:__n <- 2048
	vpop	{d8, d9}
	add	sp, sp, #4
	pop	{r4, r5, r6, r7, r8, r9, r10, r11, lr}
.Ltmp709:
	b	__cxa_atexit
.Ltmp710:
.Lfunc_end13:
	.size	_GLOBAL__sub_I_render.ii, .Lfunc_end13-_GLOBAL__sub_I_render.ii
	.cfi_endproc
	.file	62 "/usr/bin/../lib/gcc/arm-linux-gnueabihf/6.3.0/../../../../include/c++/6.3.0/bits" "basic_string.tcc"
	.fnend

	.type	.L.str,%object          @ @.str
	.section	.rodata.str1.8,"aMS",%progbits,1
	.p2align	3
.L.str:
	.asciz	"theme.wav"
	.size	.L.str, 10

	.type	.L.str.11,%object       @ @.str.11
	.p2align	3
.L.str.11:
	.asciz	"voice.wav"
	.size	.L.str.11, 10

	.type	gPlayerMag,%object      @ @gPlayerMag
	.bss
	.globl	gPlayerMag
	.p2align	2
gPlayerMag:
	.zero	20
	.size	gPlayerMag, 20

	.type	gPlayerPhi,%object      @ @gPlayerPhi
	.globl	gPlayerPhi
	.p2align	2
gPlayerPhi:
	.zero	20
	.size	gPlayerPhi, 20

	.type	gScope,%object          @ @gScope
	.globl	gScope
	.p2align	2
gScope:
	.zero	212
	.size	gScope, 212

	.type	gGui,%object            @ @gGui
	.globl	gGui
	.p2align	2
gGui:
	.zero	136
	.size	gGui, 136

	.type	gAmp,%object            @ @gAmp
	.globl	gAmp
	.p2align	2
gAmp:
	.long	0                       @ float 0
	.size	gAmp, 4

	.type	.L.str.22,%object       @ @.str.22
	.section	.rodata.str1.1,"aMS",%progbits,1
.L.str.22:
	.asciz	"Unable to initialise touch sensor\n"
	.size	.L.str.22, 35

	.type	.L.str.23,%object       @ @.str.23
.L.str.23:
	.asciz	"Error loading audio file '%s'\n"
	.size	.L.str.23, 31

	.type	.L.str.24,%object       @ @.str.24
.L.str.24:
	.asciz	"Loaded the audio file '%s' with %d frames (%.1f seconds)\n"
	.size	.L.str.24, 58

	.type	.L.str.25,%object       @ @.str.25
.L.str.25:
	.asciz	"bela-process-fft"
	.size	.L.str.25, 17

	.type	.L.str.27,%object       @ @.str.27
.L.str.27:
	.asciz	"vector::_M_default_append"
	.size	.L.str.27, 26

	.section	.init_array,"aw",%init_array
	.p2align	2
	.long	_GLOBAL__sub_I_render.ii(target1)
	.type	.L_MergedGlobals,%object @ @_MergedGlobals
	.data
	.p2align	4
.L_MergedGlobals:
	.long	256                     @ 0x100
	.long	0                       @ 0x0
	.long	0                       @ 0x0
	.long	0                       @ 0x0
	.long	0                       @ 0x0
	.long	0
	.long	0                       @ 0x0
	.long	0                       @ float 0
	.long	1112014848              @ float 50
	.long	1128792064              @ float 200
	.zero	8
	.zero	12
	.zero	12
	.zero	12
	.zero	12
	.zero	12
	.zero	12
	.size	.L_MergedGlobals, 120

	.type	.L_MergedGlobals.2,%object @ @_MergedGlobals.2
	.local	.L_MergedGlobals.2
	.comm	.L_MergedGlobals.2,108,16
	.type	.L_MergedGlobals.3,%object @ @_MergedGlobals.3
	.local	.L_MergedGlobals.3
	.comm	.L_MergedGlobals.3,88,16
	.type	.L_MergedGlobals.4,%object @ @_MergedGlobals.4
	.local	.L_MergedGlobals.4
	.comm	.L_MergedGlobals.4,80,16
	.type	.L_MergedGlobals.5,%object @ @_MergedGlobals.5
	.local	.L_MergedGlobals.5
	.comm	.L_MergedGlobals.5,32,16